(dp0
S'clustering_coefficients'
p1
ccollections
OrderedDict
p2
((lp3
(lp4
S'sub-0025864_ses-1_dwi_desikan.gpickle'
p5
a(lp6
F0.5570621468926553
aF0.7492063492063492
aF0.8352272727272727
aF0.6737254901960784
aF0.6021303258145363
aF0.7636363636363637
aF0.7849462365591398
aF0.7085365853658536
aF0.8526315789473684
aF0.7269230769230769
aF0.6775898520084567
aF0.6857142857142857
aF0.7859848484848485
aF0.7777777777777778
aF0.6933333333333334
aF0.8100840336134454
aF0.8365591397849462
aF0.896774193548387
aF0.7425320056899004
aF1.0
aF0.8660968660968661
aF0.6923076923076923
aF0.8487394957983193
aF0.6968085106382979
aF0.6845238095238095
aF0.6842105263157895
aF0.8004032258064516
aF0.7142857142857143
aF0.6208754208754209
aF0.8044354838709677
aF0.7678812415654521
aF0.8238095238095238
aF0.8596491228070176
aF0.6666666666666666
aF0.8940886699507389
aF0.5791934541203975
aF0.7195121951219512
aF0.8229885057471265
aF0.6661224489795918
aF0.5672316384180791
aF0.6060606060606061
aF0.6890756302521008
aF0.7977207977207977
aF0.8333333333333334
aF0.7977207977207977
aF0.6267006802721088
aF0.683982683982684
aF0.7777777777777778
aF0.683982683982684
aF0.6421052631578947
aF0.82
aF0.6945412311265969
aF0.7152496626180836
aF0.8084033613445378
aF0.9130434782608695
aF0.8407258064516129
aF0.9333333333333333
aF0.8227513227513228
aF0.6619607843137255
aF0.6182873730043541
aF0.5800139762403913
aF0.844758064516129
aF0.7747899159663866
aF0.6319758672699849
aF0.8311688311688312
aF0.6775898520084567
aF0.6676767676767676
aF0.8095238095238095
aF0.8444444444444444
aF0.8603988603988604
aaa(lp7
S'sub-0025864_ses-2_dwi_desikan.gpickle'
p8
a(lp9
F0.5242548217416715
aF0.8516129032258064
aF0.8492307692307692
aF0.6734505087881592
aF0.6010558069381599
aF0.75
aF0.6561264822134387
aF0.6858974358974359
aF0.8066666666666666
aF0.6858974358974359
aF0.6766334440753046
aF0.672514619883041
aF0.6735632183908046
aF0.6578947368421053
aF0.6143790849673203
aF0.7237237237237237
aF0.7097560975609756
aF0.8288770053475936
aF0.8201970443349754
aF1.0
aF0.857707509881423
aF0.6666666666666666
aF0.9088319088319088
aF0.6666666666666666
aF0.7247386759581882
aF0.6479915433403806
aF0.7684729064039408
aF0.701058201058201
aF0.6067632850241546
aF0.7533333333333333
aF0.7246963562753036
aF0.874384236453202
aF0.9285714285714286
aF0.6222222222222222
aF0.9285714285714286
aF0.5372050816696915
aF0.7537537537537538
aF0.8062678062678063
aF0.6466234967622572
aF0.5777777777777777
aF0.6071428571428571
aF0.6860215053763441
aF0.7264957264957265
aF0.7751322751322751
aF0.77
aF0.6386473429951691
aF0.5770750988142292
aF0.6748768472906403
aF0.6153846153846154
aF0.5571428571428572
aF0.8142857142857143
aF0.7632183908045977
aF0.7448717948717949
aF0.6966966966966966
aF0.8833333333333333
aF0.9411764705882353
aF0.8181818181818182
aF0.8487903225806451
aF0.6219607843137255
aF0.589098532494759
aF0.6153846153846154
aF0.8478260869565217
aF0.81
aF0.5977891156462585
aF0.7758620689655172
aF0.6884615384615385
aF0.6913319238900634
aF0.8888888888888888
aF0.6666666666666666
aF0.8285714285714286
aaa(lp10
S'sub-0025865_ses-1_dwi_desikan.gpickle'
p11
a(lp12
F0.498989898989899
aF0.8201058201058201
aF0.9637681159420289
aF0.6057971014492753
aF0.5748299319727891
aF0.7352941176470589
aF0.7189542483660131
aF0.8015873015873016
aF0.9311594202898551
aF0.7540229885057471
aF0.6073170731707317
aF0.7407407407407407
aF0.7064393939393939
aF0.6967741935483871
aF0.6837944664031621
aF0.8461538461538461
aF0.8061538461538461
aF0.7196969696969697
aF0.7045454545454546
aF1.0
aF0.7471264367816092
aF0.7876923076923077
aF0.7578347578347578
aF0.6131313131313131
aF0.6681681681681682
aF0.6140350877192983
aF0.7698924731182796
aF0.6720142602495544
aF0.575354609929078
aF0.7463054187192119
aF0.7311827956989247
aF0.8615384615384616
aF1.0
aF0.6222222222222222
aF0.9956709956709957
aF0.4915584415584416
aF0.9130434782608695
aF1.0
aF0.6378048780487805
aF0.5790934320074006
aF0.7489177489177489
aF0.5619047619047619
aF0.8233333333333334
aF0.8932806324110671
aF0.9095238095238095
aF0.6051282051282051
aF0.8043478260869565
aF0.7102272727272727
aF0.6825396825396826
aF0.6205533596837944
aF0.9095238095238095
aF0.5680672268907563
aF0.6755793226381461
aF0.8433048433048433
aF0.8917378917378918
aF0.9266666666666666
aF0.7792207792207793
aF0.6723646723646723
aF0.5949494949494949
aF0.5864734299516908
aF0.5789473684210527
aF0.8596059113300493
aF0.812807881773399
aF0.610917537746806
aF0.7435897435897436
aF0.7606837606837606
aF0.7413793103448276
aF1.0
aF0.6785714285714286
aF0.9523809523809523
aaa(lp13
S'sub-0025865_ses-2_dwi_desikan.gpickle'
p14
a(lp15
F0.5007541478129713
aF0.8966666666666666
aF0.8833333333333333
aF0.5808080808080808
aF0.5390070921985816
aF0.7333333333333333
aF0.7076023391812866
aF0.791005291005291
aF0.9446640316205533
aF0.791005291005291
aF0.5948717948717949
aF0.7433862433862434
aF0.6279569892473118
aF0.7464387464387464
aF0.6198830409356725
aF0.8466666666666667
aF0.79
aF0.7140151515151515
aF0.855072463768116
aF0.9047619047619048
aF0.7984189723320159
aF0.8266666666666667
aF0.7630769230769231
aF0.5858585858585859
aF0.6128205128205129
aF0.6912878787878788
aF0.7671957671957672
aF0.7464387464387464
aF0.5246598639455783
aF0.7720797720797721
aF0.7586206896551724
aF0.9567099567099567
aF0.6666666666666666
aF0.7222222222222222
aF0.9311594202898551
aF0.4564935064935065
aF0.8961038961038961
aF0.9090909090909091
aF0.6351351351351351
aF0.5393154486586494
aF0.7578947368421053
aF0.5526315789473685
aF0.83399209486166
aF0.8831168831168831
aF0.8528138528138528
aF0.573076923076923
aF0.8181818181818182
aF0.6528735632183909
aF0.6495726495726496
aF0.6257309941520468
aF0.8528138528138528
aF0.5462184873949579
aF0.6452762923351159
aF0.753968253968254
aF1.0
aF0.9090909090909091
aF0.9883040935672515
aF0.69
aF0.5876887340301974
aF0.5853658536585366
aF0.5540540540540541
aF0.8062678062678063
aF0.8
aF0.615931721194879
aF0.8441558441558441
aF0.7446153846153846
aF0.7380952380952381
aF0.6
aF0.8055555555555556
aF0.9238095238095239
aaa(lp16
S'sub-0025866_ses-1_dwi_desikan.gpickle'
p17
a(lp18
F0.5497175141242938
aF0.7456445993031359
aF0.7746288798920378
aF0.7076780758556892
aF0.6470588235294118
aF0.7121212121212122
aF0.6333333333333333
aF0.7177177177177178
aF0.7477477477477478
aF0.7043189368770764
aF0.7102102102102102
aF0.6493506493506493
aF0.716931216931217
aF0.6406926406926406
aF0.6323529411764706
aF0.6998892580287929
aF0.7584345479082322
aF0.88
aF0.873015873015873
aF0.9047619047619048
aF0.868421052631579
aF0.6691176470588235
aF0.7923387096774194
aF0.7145877378435518
aF0.7468060394889663
aF0.7126984126984127
aF0.7364532019704434
aF0.7934782608695652
aF0.6403061224489796
aF0.7422402159244265
aF0.6780758556891767
aF0.8044354838709677
aF0.8571428571428571
aF0.6181818181818182
aF0.7831932773109244
aF0.5542372881355933
aF0.825287356321839
aF0.7915966386554621
aF0.7058279370952821
aF0.6012987012987013
aF0.6666666666666666
aF0.6882591093117408
aF0.7290322580645161
aF0.7727272727272727
aF0.79
aF0.6193236714975845
aF0.6679841897233202
aF0.7116935483870968
aF0.6466666666666666
aF0.5866935483870968
aF0.8523809523809524
aF0.8151260504201681
aF0.7065527065527065
aF0.7602564102564102
aF0.8444444444444444
aF0.7943548387096774
aF0.6736842105263158
aF0.8128342245989305
aF0.643265306122449
aF0.6564625850340136
aF0.6188714153561518
aF0.8150537634408602
aF0.7913978494623656
aF0.6471088435374149
aF0.7827956989247312
aF0.7057057057057057
aF0.8011363636363636
aF0.8095238095238095
aF0.6444444444444445
aF0.8913043478260869
aaa(lp19
S'sub-0025866_ses-2_dwi_desikan.gpickle'
p20
a(lp21
F0.5482174167153712
aF0.7773279352226721
aF0.7849462365591398
aF0.647843137254902
aF0.6327300150829562
aF0.7051282051282052
aF0.6910569105691057
aF0.6752136752136753
aF0.7786561264822134
aF0.7024390243902439
aF0.6538461538461539
aF0.6549707602339181
aF0.6851851851851852
aF0.6086956521739131
aF0.5847953216374269
aF0.7207317073170731
aF0.7678812415654521
aF0.9057971014492754
aF0.8646153846153846
aF1.0
aF0.8596491228070176
aF0.6923076923076923
aF0.7842741935483871
aF0.7508305647840532
aF0.6850241545893719
aF0.6651651651651652
aF0.7509881422924901
aF0.7792207792207793
aF0.6015686274509804
aF0.7580645161290323
aF0.7304878048780488
aF0.7629233511586453
aF0.8571428571428571
aF0.7272727272727273
aF0.7984126984126985
aF0.5676691729323309
aF0.7672672672672672
aF0.6808080808080809
aF0.66921768707483
aF0.6030747728860937
aF0.7454545454545455
aF0.6831831831831832
aF0.6707152496626181
aF0.8064516129032258
aF0.7087087087087087
aF0.6494949494949495
aF0.6442687747035574
aF0.6733870967741935
aF0.6633333333333333
aF0.6674876847290641
aF0.8023715415019763
aF0.8123123123123123
aF0.8461538461538461
aF0.7417417417417418
aF0.8909090909090909
aF0.9047619047619048
aF0.6764705882352942
aF0.8365591397849462
aF0.7514518002322881
aF0.6641156462585034
aF0.6378737541528239
aF0.8276923076923077
aF0.8658008658008658
aF0.5957910014513788
aF0.7708333333333334
aF0.6707317073170732
aF0.8064516129032258
aF0.8095238095238095
aF0.75
aF0.9090909090909091
aaa(lp22
S'sub-0025867_ses-1_dwi_desikan.gpickle'
p23
a(lp24
F0.4552893045002922
aF0.6504201680672269
aF0.8831168831168831
aF0.6666666666666666
aF0.592929292929293
aF0.6111111111111112
aF0.63
aF0.8104575163398693
aF0.780952380952381
aF0.6988505747126437
aF0.5465587044534413
aF0.6842105263157895
aF0.6354679802955665
aF0.5955882352941176
aF0.5324675324675324
aF0.8245614035087719
aF0.6781609195402298
aF0.7157258064516129
aF0.8051948051948052
aF0.8611111111111112
aF0.875
aF0.6263736263736264
aF0.7891737891737892
aF0.680952380952381
aF0.5828282828282828
aF0.5596638655462185
aF0.6861538461538461
aF0.7101449275362319
aF0.5504162812210915
aF0.71
aF0.5717948717948718
aF0.8215384615384616
aF0.9285714285714286
aF0.75
aF0.6860215053763441
aF0.5037037037037037
aF0.7237903225806451
aF0.8188405797101449
aF0.587737843551797
aF0.6109756097560975
aF0.6727272727272727
aF0.6482213438735178
aF0.7509881422924901
aF0.7415384615384616
aF0.7509881422924901
aF0.5342995169082125
aF0.5869565217391305
aF0.6920289855072463
aF0.625
aF0.6349206349206349
aF0.7792207792207793
aF0.6702317290552585
aF0.6818181818181818
aF0.6595365418894831
aF0.9166666666666666
aF0.782608695652174
aF0.6909090909090909
aF0.6742532005689901
aF0.6950757575757576
aF0.5949494949494949
aF0.5576923076923077
aF0.819047619047619
aF0.6655462184873949
aF0.5478260869565217
aF0.6894586894586895
aF0.7166666666666667
aF0.7733990147783252
aF0.8214285714285714
aF0.6666666666666666
aF0.782608695652174
aaa(lp25
S'sub-0025867_ses-2_dwi_desikan.gpickle'
p26
a(lp27
F0.4972677595628415
aF0.7348484848484849
aF0.849802371541502
aF0.6327474560592045
aF0.5877551020408164
aF0.6666666666666666
aF0.6108374384236454
aF0.7647058823529411
aF0.7857142857142857
aF0.7433333333333333
aF0.5870445344129555
aF0.683982683982684
aF0.6092307692307692
aF0.6544117647058824
aF0.5497835497835498
aF0.8181818181818182
aF0.6291291291291291
aF0.7881773399014779
aF0.6625615763546798
aF0.9642857142857143
aF0.8589743589743589
aF0.7272727272727273
aF0.75
aF0.6133209990749307
aF0.6464646464646465
aF0.5889046941678521
aF0.7391304347826086
aF0.671957671957672
aF0.5608163265306122
aF0.7121212121212122
aF0.6489479512735327
aF0.7481060606060606
aF0.8571428571428571
aF0.6388888888888888
aF0.7158730158730159
aF0.5494949494949495
aF0.7936507936507936
aF0.8961038961038961
aF0.6865853658536586
aF0.651219512195122
aF0.6363636363636364
aF0.6833333333333333
aF0.7087087087087087
aF0.7417417417417418
aF0.7529411764705882
aF0.6115942028985507
aF0.8153846153846154
aF0.6561264822134387
aF0.6535947712418301
aF0.6153846153846154
aF0.8003565062388592
aF0.7789661319073083
aF0.7777777777777778
aF0.719758064516129
aF0.9722222222222222
aF0.8063241106719368
aF0.6363636363636364
aF0.7254623044096729
aF0.7708333333333334
aF0.6215986394557823
aF0.6035940803382663
aF0.7566666666666667
aF0.7934782608695652
aF0.5990338164251208
aF0.7246963562753036
aF0.7777777777777778
aF0.7822822822822822
aF0.7857142857142857
aF0.7142857142857143
aF0.8972332015810277
aaa(lp28
S'sub-0025868_ses-1_dwi_desikan.gpickle'
p29
a(lp30
F0.5188679245283019
aF0.919047619047619
aF0.7839080459770115
aF0.6077294685990338
aF0.58743961352657
aF0.7818181818181819
aF0.6666666666666666
aF0.6881720430107527
aF0.8221343873517787
aF0.6881720430107527
aF0.5760743321718932
aF0.6339869281045751
aF0.6689655172413793
aF0.5566502463054187
aF0.6137931034482759
aF0.7512315270935961
aF0.6363636363636364
aF0.7804232804232805
aF0.6989247311827957
aF1.0
aF0.8874458874458875
aF0.7272727272727273
aF0.7753623188405797
aF0.7005347593582888
aF0.6576923076923077
aF0.6141141141141141
aF0.8
aF0.7549857549857549
aF0.5602836879432624
aF0.7166666666666667
aF0.7290322580645161
aF0.857707509881423
aF1.0
aF0.75
aF0.8225108225108225
aF0.5057239057239057
aF0.8297101449275363
aF0.7379679144385026
aF0.5551020408163265
aF0.5878787878787879
aF0.6666666666666666
aF0.7056277056277056
aF0.6773399014778325
aF0.8787878787878788
aF0.8066666666666666
aF0.557487922705314
aF0.6738461538461539
aF0.6881720430107527
aF0.6772486772486772
aF0.5904761904761905
aF0.8735177865612648
aF0.626984126984127
aF0.6856060606060606
aF0.6288798920377868
aF0.9523809523809523
aF0.8809523809523809
aF0.8589743589743589
aF0.6875
aF0.665079365079365
aF0.5718085106382979
aF0.5789473684210527
aF0.855072463768116
aF0.8181818181818182
aF0.511611030478955
aF0.7789855072463768
aF0.6722689075630253
aF0.9380952380952381
aF1.0
aF0.8222222222222222
aF0.9281045751633987
aaa(lp31
S'sub-0025868_ses-2_dwi_desikan.gpickle'
p32
a(lp33
F0.5301659125188537
aF0.8809523809523809
aF0.8448275862068966
aF0.5816425120772947
aF0.5949494949494949
aF0.6666666666666666
aF0.6883116883116883
aF0.664367816091954
aF0.8095238095238095
aF0.7122507122507122
aF0.5692137320044297
aF0.5930735930735931
aF0.7354497354497355
aF0.5928853754940712
aF0.5733333333333334
aF0.7427536231884058
aF0.6576354679802956
aF0.6995073891625616
aF0.6856060606060606
aF1.0
aF0.8338461538461538
aF0.6333333333333333
aF0.8333333333333334
aF0.6116642958748222
aF0.5585858585858586
aF0.5463414634146342
aF0.8290598290598291
aF0.7630769230769231
aF0.5707070707070707
aF0.7033333333333334
aF0.7222222222222222
aF0.8571428571428571
aF0.8
aF0.6
aF0.8654970760233918
aF0.4785714285714286
aF0.6477832512315271
aF0.8746438746438746
aF0.6693657219973009
aF0.5919661733615222
aF0.717948717948718
aF0.63
aF0.7101449275362319
aF0.8368421052631579
aF0.7965367965367965
aF0.5189639222941721
aF0.6521739130434783
aF0.7586206896551724
aF0.6052631578947368
aF0.6477832512315271
aF0.8473684210526315
aF0.5630630630630631
aF0.6653225806451613
aF0.7254901960784313
aF0.9842105263157894
aF0.9
aF0.7083333333333334
aF0.7922077922077922
aF0.6486486486486487
aF0.5972515856236786
aF0.53156146179402
aF0.8624338624338624
aF0.8215384615384616
aF0.6642958748221907
aF0.7193675889328063
aF0.7292307692307692
aF0.7068965517241379
aF0.8095238095238095
aF0.8
aF0.8455882352941176
aaa(lp34
S'sub-0025869_ses-1_dwi_desikan.gpickle'
p35
a(lp36
F0.5242548217416715
aF0.7792792792792793
aF0.8804347826086957
aF0.6742532005689901
aF0.6369047619047619
aF0.7727272727272727
aF0.6263157894736842
aF0.7368421052631579
aF0.8
aF0.7368421052631579
aF0.6196808510638298
aF0.8571428571428571
aF0.678030303030303
aF0.7282608695652174
aF0.6147186147186147
aF0.8031746031746032
aF0.7566137566137566
aF0.8444444444444444
aF0.8441558441558441
aF0.8571428571428571
aF0.8354978354978355
aF0.7362637362637363
aF0.8153153153153153
aF0.6641998149861239
aF0.7192192192192193
aF0.6991869918699187
aF0.7566137566137566
aF0.8095238095238095
aF0.6456456456456456
aF0.7624466571834992
aF0.7073170731707317
aF0.8698752228163993
aF0.8095238095238095
aF0.6222222222222222
aF0.9477124183006536
aF0.5257108287961283
aF0.7761904761904762
aF0.8972332015810277
aF0.7139784946236559
aF0.6109803921568627
aF0.7428571428571429
aF0.6017316017316018
aF0.6743902439024391
aF0.7949579831932773
aF0.6884615384615385
aF0.5874509803921568
aF0.6923076923076923
aF0.6754032258064516
aF0.6842105263157895
aF0.6594202898550725
aF0.7098515519568152
aF0.69
aF0.7584345479082322
aF0.6781609195402298
aF0.75
aF0.8008658008658008
aF0.7564102564102564
aF0.7035573122529645
aF0.6524822695035462
aF0.5765199161425576
aF0.5803921568627451
aF0.7777777777777778
aF0.7777777777777778
aF0.6720142602495544
aF0.7873015873015873
aF0.6571428571428571
aF0.8235294117647058
aF0.8241758241758241
aF0.7555555555555555
aF0.9848484848484849
aaa(lp37
S'sub-0025869_ses-2_dwi_desikan.gpickle'
p38
a(lp39
F0.5281954887218046
aF0.8602150537634409
aF0.987012987012987
aF0.717948717948718
aF0.5866666666666667
aF0.7333333333333333
aF0.691699604743083
aF0.7492063492063492
aF0.871264367816092
aF0.7411095305832148
aF0.6123959296947271
aF0.8597883597883598
aF0.6837121212121212
aF0.7272727272727273
aF0.5789473684210527
aF0.7936507936507936
aF0.6847290640394089
aF0.8377896613190731
aF0.8369230769230769
aF0.7857142857142857
aF0.8913043478260869
aF0.7083333333333334
aF0.864516129032258
aF0.6018099547511312
aF0.7687687687687688
aF0.6638477801268499
aF0.7494252873563219
aF0.796923076923077
aF0.65
aF0.728744939271255
aF0.7368421052631579
aF0.7936507936507936
aF0.7333333333333333
aF0.7857142857142857
aF0.9762845849802372
aF0.5192090395480226
aF0.8034188034188035
aF0.8966666666666666
aF0.7433155080213903
aF0.6285460992907801
aF0.7948717948717948
aF0.6047430830039525
aF0.7010752688172043
aF0.8142292490118577
aF0.6970443349753694
aF0.5595065312046444
aF0.7169230769230769
aF0.6301075268817204
aF0.6666666666666666
aF0.6368421052631579
aF0.7230769230769231
aF0.7063492063492064
aF0.6832779623477298
aF0.7512315270935961
aF0.8214285714285714
aF0.7815384615384615
aF0.7307692307692307
aF0.6423034330011074
aF0.6409574468085106
aF0.5582491582491582
aF0.5903381642512078
aF0.7586206896551724
aF0.83
aF0.6600284495021337
aF0.7087087087087087
aF0.658008658008658
aF0.7666666666666667
aF0.6785714285714286
aF0.8333333333333334
aF0.8571428571428571
aaa(lp40
S'sub-0025870_ses-1_dwi_desikan.gpickle'
p41
a(lp42
F0.5169398907103825
aF0.8492063492063492
aF0.7620967741935484
aF0.6909090909090909
aF0.5675324675324676
aF0.6363636363636364
aF0.6552706552706553
aF0.6773618538324421
aF0.8823529411764706
aF0.8095238095238095
aF0.6162790697674418
aF0.683982683982684
aF0.655241935483871
aF0.6719367588932806
aF0.6719367588932806
aF0.8205128205128205
aF0.7629233511586453
aF0.7474358974358974
aF0.8221343873517787
aF0.8952380952380953
aF0.9281045751633987
aF0.6470588235294118
aF0.7761904761904762
aF0.6586493987049029
aF0.6966173361522199
aF0.6173361522198731
aF0.8033333333333333
aF0.7635327635327636
aF0.5754716981132075
aF0.7365079365079366
aF0.7025210084033613
aF0.7552552552552553
aF0.8571428571428571
aF0.8666666666666667
aF0.94
aF0.5289304500292227
aF0.7567567567567568
aF0.7931034482758621
aF0.7424242424242424
aF0.5771043771043771
aF0.7333333333333333
aF0.6572199730094467
aF0.7206349206349206
aF0.7632575757575758
aF0.7842741935483871
aF0.6073469387755102
aF0.6952380952380952
aF0.6847290640394089
aF0.6630434782608695
aF0.5866666666666667
aF0.8078817733990148
aF0.6756410256410257
aF0.7777777777777778
aF0.8205128205128205
aF0.8095238095238095
aF0.8744588744588745
aF0.6916666666666667
aF0.8233333333333334
aF0.6963414634146341
aF0.6141176470588235
aF0.567843137254902
aF0.701058201058201
aF0.8181818181818182
aF0.5701357466063348
aF0.7317460317460317
aF0.7424242424242424
aF0.7932773109243697
aF0.8055555555555556
aF0.8055555555555556
aF0.8974358974358975
aaa(lp43
S'sub-0025870_ses-2_dwi_desikan.gpickle'
p44
a(lp45
F0.5259887005649717
aF0.8015873015873016
aF0.8366935483870968
aF0.6343537414965986
aF0.5688311688311688
aF0.6727272727272727
aF0.7047619047619048
aF0.7126436781609196
aF0.869281045751634
aF0.7933333333333333
aF0.6143617021276596
aF0.6926406926406926
aF0.6756302521008404
aF0.6103896103896104
aF0.6216931216931217
aF0.8221343873517787
aF0.7387387387387387
aF0.6797040169133193
aF0.8436781609195402
aF0.7619047619047619
aF0.8917748917748918
aF0.6544117647058824
aF0.8137931034482758
aF0.6512488436632747
aF0.6666666666666666
aF0.5948196114708603
aF0.8176638176638177
aF0.7806451612903226
aF0.5897973445143256
aF0.7031746031746032
aF0.6951871657754011
aF0.8306878306878307
aF0.8095238095238095
aF0.8444444444444444
aF0.9631578947368421
aF0.5595238095238095
aF0.843915343915344
aF0.8366935483870968
aF0.7329268292682927
aF0.6037735849056604
aF0.6888888888888889
aF0.746031746031746
aF0.7278225806451613
aF0.7870967741935484
aF0.8068783068783069
aF0.625
aF0.75
aF0.728735632183908
aF0.6461538461538462
aF0.6612903225806451
aF0.8029556650246306
aF0.7496443812233285
aF0.7435897435897436
aF0.725609756097561
aF0.8095238095238095
aF0.8731884057971014
aF0.7134502923976608
aF0.7815126050420168
aF0.707641196013289
aF0.6753623188405797
aF0.6424242424242425
aF0.7977011494252874
aF0.8061538461538461
aF0.6636363636363637
aF0.7150997150997151
aF0.7600806451612904
aF0.8301075268817204
aF0.8095238095238095
aF0.6944444444444444
aF0.9738562091503268
aaa(lp46
S'sub-0025871_ses-1_dwi_desikan.gpickle'
p47
a(lp48
F0.4766233766233766
aF0.9
aF0.85
aF0.602436323366556
aF0.5075414781297134
aF0.8791208791208791
aF0.7114624505928854
aF0.7758620689655172
aF0.9307359307359307
aF0.7758620689655172
aF0.5817073170731707
aF0.8614718614718615
aF0.6466666666666666
aF0.6995073891625616
aF0.5627705627705628
aF0.8233618233618234
aF0.6915322580645161
aF0.7225806451612903
aF0.6403940886699507
aF0.8666666666666667
aF0.8537549407114624
aF0.875
aF0.8201058201058201
aF0.6931818181818182
aF0.6557610241820768
aF0.6501501501501501
aF0.8266666666666667
aF0.7533333333333333
aF0.6059743954480796
aF0.7832512315270936
aF0.7609195402298851
aF0.974025974025974
aF0.7
aF0.7142857142857143
aF0.9066666666666666
aF0.4664246823956443
aF0.5762483130904184
aF0.8774703557312253
aF0.6102564102564103
aF0.5780730897009967
aF0.5636363636363636
aF0.680952380952381
aF0.6430107526881721
aF0.8138528138528138
aF0.7666666666666667
aF0.4727272727272727
aF0.8496732026143791
aF0.6492307692307693
aF0.725
aF0.6047430830039525
aF0.8008658008658008
aF0.5888888888888889
aF0.6754032258064516
aF0.8102766798418972
aF1.0
aF0.8398268398268398
aF0.9010989010989011
aF0.8169934640522876
aF0.7266009852216748
aF0.5923076923076923
aF0.5690690690690691
aF0.8246153846153846
aF0.687192118226601
aF0.5737514518002322
aF0.7666666666666667
aF0.75
aF0.7321937321937322
aF0.6666666666666666
aF0.6785714285714286
aF0.9558823529411765
aaa(lp49
S'sub-0025871_ses-2_dwi_desikan.gpickle'
p50
a(lp51
F0.5077441077441077
aF0.8404558404558404
aF0.84
aF0.6046511627906976
aF0.548469387755102
aF0.8545454545454545
aF0.7266666666666667
aF0.7586206896551724
aF0.8616600790513834
aF0.7586206896551724
aF0.5707317073170731
aF0.8311688311688312
aF0.6723646723646723
aF0.6713709677419355
aF0.6340579710144928
aF0.8227513227513228
aF0.7462365591397849
aF0.6636636636636637
aF0.7862318840579711
aF1.0
aF0.8379446640316206
aF0.8461538461538461
aF0.84
aF0.6531713900134952
aF0.6213704994192799
aF0.7118279569892473
aF0.8184615384615385
aF0.7118226600985221
aF0.5656565656565656
aF0.7380952380952381
aF0.7632183908045977
aF0.9476190476190476
aF1.0
aF0.6
aF0.8717948717948718
aF0.470659407138536
aF0.6273115220483642
aF0.8656126482213439
aF0.6153846153846154
aF0.5497584541062802
aF0.5636363636363636
aF0.5889328063241107
aF0.6896551724137931
aF0.8285714285714286
aF0.782608695652174
aF0.49709724238026126
aF0.8758169934640523
aF0.6666666666666666
aF0.7427536231884058
aF0.6268115942028986
aF0.8380952380952381
aF0.6441441441441441
aF0.7225806451612903
aF0.8142857142857143
aF0.9428571428571428
aF0.9
aF0.9333333333333333
aF0.8161764705882353
aF0.8369565217391305
aF0.5900116144018583
aF0.5171717171717172
aF0.8091168091168092
aF0.7513227513227513
aF0.5737514518002322
aF0.7333333333333333
aF0.5900178253119429
aF0.7126436781609196
aF1.0
aF0.8222222222222222
aF0.9848484848484849
aaa(lp52
S'sub-0025872_ses-1_dwi_desikan.gpickle'
p53
a(lp54
F0.5666666666666667
aF0.9735449735449735
aF0.8092691622103387
aF0.6149350649350649
aF0.6096491228070176
aF0.6222222222222222
aF0.6618357487922706
aF0.8004032258064516
aF0.8781609195402299
aF0.8758620689655172
aF0.6484736355226642
aF0.7803030303030303
aF0.7241379310344828
aF0.8399014778325123
aF0.7103448275862069
aF0.916923076923077
aF0.7638691322901849
aF0.7609756097560976
aF0.7727272727272727
aF0.8571428571428571
aF0.9130434782608695
aF0.7272727272727273
aF0.7462887989203779
aF0.6773049645390071
aF0.6515837104072398
aF0.7447447447447447
aF0.8349753694581281
aF0.8233618233618234
aF0.5904416212946159
aF0.8145161290322581
aF0.8064516129032258
aF0.9735449735449735
aF1.0
aF0.7142857142857143
aF0.95
aF0.5601092896174863
aF0.6854764107308048
aF0.8057040998217468
aF0.6835106382978723
aF0.606516290726817
aF0.6444444444444445
aF0.6400709219858156
aF0.7555555555555555
aF0.8185483870967742
aF0.7899159663865546
aF0.6191474493361285
aF0.7183600713012478
aF0.7763440860215054
aF0.7263157894736842
aF0.7770114942528735
aF0.8781609195402299
aF0.6702127659574468
aF0.9021164021164021
aF0.7384615384615385
aF0.9477124183006536
aF0.8746438746438746
aF0.8
aF0.864516129032258
aF0.7813765182186235
aF0.7398373983739838
aF0.6505050505050505
aF0.8473118279569892
aF0.7338709677419355
aF0.6578014184397163
aF0.7898550724637681
aF0.7365079365079366
aF0.8770161290322581
aF1.0
aF0.7454545454545455
aF0.9064327485380117
aaa(lp55
S'sub-0025872_ses-2_dwi_desikan.gpickle'
p56
a(lp57
F0.5386584741423451
aF0.9076923076923077
aF0.7759784075573549
aF0.5694915254237288
aF0.5862068965517241
aF0.7333333333333333
aF0.7333333333333333
aF0.7804232804232805
aF0.8695652173913043
aF0.8148148148148148
aF0.5983673469387755
aF0.7415384615384616
aF0.7681451612903226
aF0.7435897435897436
aF0.7192118226600985
aF0.8804347826086957
aF0.8176638176638177
aF0.7192982456140351
aF0.832258064516129
aF0.9191176470588235
aF0.8793103448275862
aF0.7051282051282052
aF0.6695121951219513
aF0.6312217194570136
aF0.6128581411600279
aF0.6281221091581869
aF0.8758620689655172
aF0.8172043010752689
aF0.556497175141243
aF0.7701149425287356
aF0.7182795698924731
aF0.9076923076923077
aF1.0
aF0.7142857142857143
aF0.9407114624505929
aF0.5661016949152542
aF0.7156448202959831
aF0.8174603174603174
aF0.7160037002775208
aF0.6930272108843537
aF0.6666666666666666
aF0.664367816091954
aF0.8288288288288288
aF0.8674242424242424
aF0.8680926916221033
aF0.6329411764705882
aF0.7402402402402403
aF0.7883064516129032
aF0.6339869281045751
aF0.7103448275862069
aF0.9075268817204301
aF0.6719512195121952
aF0.9440860215053763
aF0.7837837837837838
aF0.9934640522875817
aF0.8915343915343915
aF0.8674242424242424
aF0.8278805120910384
aF0.7515856236786469
aF0.7434343434343434
aF0.697979797979798
aF0.8817733990147784
aF0.7736185383244206
aF0.6879432624113475
aF0.8588709677419355
aF0.8444444444444444
aF0.8137651821862348
aF1.0
aF0.8901098901098901
aF0.955026455026455
aaa(lp58
S'sub-0025873_ses-1_dwi_desikan.gpickle'
p59
a(lp60
F0.5168627450980392
aF0.7885057471264367
aF0.855072463768116
aF0.6294871794871795
aF0.5587419056429233
aF0.5555555555555556
aF0.7095238095238096
aF0.7483870967741936
aF0.8952380952380953
aF0.7483870967741936
aF0.5951417004048583
aF0.9105263157894737
aF0.6485507246376812
aF0.8142292490118577
aF0.5228758169934641
aF0.7241379310344828
aF0.7438423645320197
aF0.7635467980295566
aF0.8152173913043478
aF1.0
aF0.8366013071895425
aF0.9239766081871345
aF0.8616600790513834
aF0.6366366366366366
aF0.6292682926829268
aF0.6151260504201681
aF0.7486772486772487
aF0.7236467236467237
aF0.7032258064516129
aF0.8616600790513834
aF0.6789915966386555
aF0.9177489177489178
aF0.7
aF0.7142857142857143
aF0.7777777777777778
aF0.4825834542815675
aF0.6325757575757576
aF0.84
aF0.5691056910569106
aF0.525709219858156
aF0.7111111111111111
aF0.6615384615384615
aF0.6892307692307692
aF0.8
aF0.7572463768115942
aF0.5342995169082125
aF0.7526315789473684
aF0.6
aF0.5906432748538012
aF0.7238095238095238
aF0.780952380952381
aF0.6653225806451613
aF0.5949579831932773
aF0.7619047619047619
aF1.0
aF0.7714285714285715
aF0.8
aF0.7660818713450293
aF0.6417112299465241
aF0.5319148936170213
aF0.56006006006006
aF0.7463768115942029
aF0.73
aF0.5420289855072464
aF0.8
aF0.7012987012987013
aF0.8830409356725146
aF0.5333333333333333
aF0.7777777777777778
aF0.9
aaa(lp61
S'sub-0025873_ses-2_dwi_desikan.gpickle'
p62
a(lp63
F0.4500349406009783
aF0.8766666666666667
aF0.7723076923076924
aF0.6989247311827957
aF0.5444444444444444
aF0.6060606060606061
aF0.5476923076923077
aF0.7671957671957672
aF0.9095238095238095
aF0.8034188034188035
aF0.5960960960960962
aF0.8523809523809524
aF0.67
aF0.74
aF0.5588235294117647
aF0.7966666666666666
aF0.6597701149425287
aF0.7402298850574712
aF0.8736842105263158
aF0.9416666666666667
aF0.9084967320261438
aF0.9298245614035088
aF0.796923076923077
aF0.678030303030303
aF0.6576576576576577
aF0.5953654188948306
aF0.7137681159420289
aF0.7150997150997151
aF0.6758620689655173
aF0.8537549407114624
aF0.7684729064039408
aF0.8276923076923077
aF0.7619047619047619
aF0.75
aF0.8553846153846154
aF0.41802782819116757
aF0.7707509881422925
aF0.7407407407407407
aF0.5398110661268556
aF0.48226950354609927
aF0.6944444444444444
aF0.6894736842105263
aF0.7402597402597403
aF0.7761904761904762
aF0.7857142857142857
aF0.4620408163265306
aF0.7953216374269005
aF0.6159420289855072
aF0.5714285714285714
aF0.5672514619883041
aF0.8304093567251462
aF0.7312252964426877
aF0.5519203413940256
aF0.8529411764705882
aF0.7
aF0.8161764705882353
aF0.8
aF0.6861538461538461
aF0.7015384615384616
aF0.4745605920444033
aF0.5954022988505747
aF0.8300653594771242
aF0.7285714285714285
aF0.5555555555555556
aF0.7761904761904762
aF0.6166666666666667
aF0.7628458498023716
aF0.5333333333333333
aF0.7142857142857143
aF0.9242424242424242
aaa(lp64
S'sub-0025874_ses-1_dwi_desikan.gpickle'
p65
a(lp66
F0.5494987468671679
aF0.8021390374331551
aF0.9232804232804233
aF0.6614246068455134
aF0.6149019607843137
aF0.6666666666666666
aF0.6688172043010753
aF0.6974358974358974
aF0.841897233201581
aF0.7222222222222222
aF0.6437632135306554
aF0.7391304347826086
aF0.7479838709677419
aF0.6581196581196581
aF0.7126436781609196
aF0.8260869565217391
aF0.7571428571428571
aF0.8472906403940886
aF0.773109243697479
aF1.0
aF0.916923076923077
aF0.5916666666666667
aF0.8086021505376344
aF0.6910569105691057
aF0.6484736355226642
aF0.7327731092436974
aF0.7763440860215054
aF0.8492063492063492
aF0.6096938775510204
aF0.8115942028985508
aF0.6522198731501057
aF0.8258064516129032
aF0.8
aF0.6483516483516484
aF0.8143939393939394
aF0.5248392752776154
aF0.7045454545454546
aF0.9232804232804233
aF0.6606060606060606
aF0.6122448979591837
aF0.782051282051282
aF0.6781609195402298
aF0.7094017094017094
aF0.8947368421052632
aF0.8428571428571429
aF0.563921568627451
aF0.677536231884058
aF0.7784946236559139
aF0.7
aF0.7310606060606061
aF0.8758169934640523
aF0.6698412698412698
aF0.6782051282051282
aF0.8206896551724138
aF0.9420289855072463
aF0.9344729344729344
aF0.8596491228070176
aF0.71
aF0.6898954703832753
aF0.5444862155388471
aF0.553623188405797
aF0.8559139784946237
aF0.8225806451612904
aF0.6299722479185939
aF0.6653225806451613
aF0.7138461538461538
aF0.6698412698412698
aF0.8545454545454545
aF0.6
aF0.9333333333333333
aaa(lp67
S'sub-0025874_ses-2_dwi_desikan.gpickle'
p68
a(lp69
F0.5776772247360482
aF0.8365591397849462
aF0.8830769230769231
aF0.7243589743589743
aF0.6320921985815603
aF0.7555555555555555
aF0.7807881773399015
aF0.7394957983193278
aF0.8633333333333333
aF0.7943548387096774
aF0.6731707317073171
aF0.7339901477832512
aF0.7149425287356321
aF0.5849802371541502
aF0.6095238095238096
aF0.8888888888888888
aF0.6807692307692308
aF0.8560606060606061
aF0.8553846153846154
aF0.9285714285714286
aF0.9315789473684211
aF0.7047619047619048
aF0.9064039408866995
aF0.7422402159244265
aF0.689922480620155
aF0.6695121951219513
aF0.7149425287356321
aF0.7971014492753623
aF0.6161616161616161
aF0.7579831932773109
aF0.6373737373737374
aF0.8783068783068783
aF0.8095238095238095
aF0.7047619047619048
aF0.8888888888888888
aF0.49094097019286964
aF0.7353846153846154
aF0.8603988603988604
aF0.6475609756097561
aF0.5253246753246753
aF0.6545454545454545
aF0.5913978494623656
aF0.8008658008658008
aF0.8473684210526315
aF0.8008658008658008
aF0.53319357092942
aF0.6594202898550725
aF0.69
aF0.6413043478260869
aF0.6266666666666667
aF0.8476190476190476
aF0.6739495798319328
aF0.6194503171247357
aF0.7671957671957672
aF1.0
aF0.8366666666666667
aF0.9340659340659341
aF0.7789855072463768
aF0.7064102564102565
aF0.5380852550663872
aF0.5493612078977933
aF0.7692307692307693
aF0.7563218390804598
aF0.6002214839424141
aF0.7904761904761904
aF0.780952380952381
aF0.6411411411411412
aF0.6666666666666666
aF0.8
aF0.9281045751633987
aaa(lp70
S'sub-0025875_ses-1_dwi_desikan.gpickle'
p71
a(lp72
F0.4406779661016949
aF0.8537549407114624
aF0.7948717948717948
aF0.6383265856950068
aF0.5363265306122449
aF0.8461538461538461
aF0.6363636363636364
aF0.7353846153846154
aF0.9142857142857143
aF0.75
aF0.5159574468085106
aF0.8578947368421053
aF0.6126482213438735
aF0.7944664031620553
aF0.5631578947368421
aF0.8368421052631579
aF0.6866096866096866
aF0.6062717770034843
aF0.7476923076923077
aF0.9333333333333333
aF0.8311688311688312
aF0.9415204678362573
aF0.77
aF0.5661835748792271
aF0.598780487804878
aF0.6285714285714286
aF0.76
aF0.7008547008547008
aF0.6246246246246246
aF0.8701298701298701
aF0.6666666666666666
aF0.6638655462184874
aF0.7619047619047619
aF0.7142857142857143
aF0.7633333333333333
aF0.5007541478129713
aF0.7118279569892473
aF0.8148148148148148
aF0.6561561561561562
aF0.5739130434782609
aF0.75
aF0.6
aF0.6482758620689655
aF0.7116402116402116
aF0.6674876847290641
aF0.553623188405797
aF0.8333333333333334
aF0.6031746031746031
aF0.6285714285714286
aF0.6578947368421053
aF0.7236467236467237
aF0.5886699507389163
aF0.8251231527093597
aF0.7538461538461538
aF0.9333333333333333
aF0.8894736842105263
aF0.8636363636363636
aF0.7807881773399015
aF0.7537878787878788
aF0.6500711237553343
aF0.5448717948717948
aF0.7663817663817664
aF0.7549857549857549
aF0.6737967914438503
aF0.7354497354497355
aF0.7320261437908496
aF0.7806267806267806
aF0.7142857142857143
aF0.8333333333333334
aF0.9090909090909091
aaa(lp73
S'sub-0025875_ses-2_dwi_desikan.gpickle'
p74
a(lp75
F0.4523670368205728
aF0.8181818181818182
aF0.7512315270935961
aF0.6720142602495544
aF0.6019323671497585
aF0.8333333333333334
aF0.6181818181818182
aF0.6410256410256411
aF0.8421052631578947
aF0.7402597402597403
aF0.515263644773358
aF0.8333333333333334
aF0.6363636363636364
aF0.7660818713450293
aF0.6198830409356725
aF0.8431372549019608
aF0.7101449275362319
aF0.6292682926829268
aF0.7521367521367521
aF0.9333333333333333
aF0.8654970760233918
aF0.9848484848484849
aF0.6590909090909091
aF0.5884057971014492
aF0.5707678075855689
aF0.5486257928118393
aF0.7355072463768116
aF0.6399286987522281
aF0.6142857142857143
aF0.7566666666666667
aF0.632183908045977
aF0.7384615384615385
aF0.7333333333333333
aF0.7142857142857143
aF0.8398268398268398
aF0.5101327742837177
aF0.7560483870967742
aF0.8666666666666667
aF0.7237903225806451
aF0.6289640591966174
aF0.7142857142857143
aF0.6666666666666666
aF0.7379032258064516
aF0.8676923076923077
aF0.7763440860215054
aF0.6699857752489331
aF0.8695652173913043
aF0.5952380952380952
aF0.6761904761904762
aF0.6578947368421053
aF0.8022988505747126
aF0.6017069701280228
aF0.7243697478991596
aF0.8893280632411067
aF1.0
aF0.8379446640316206
aF0.9083333333333333
aF0.6770981507823614
aF0.7192192192192193
aF0.6550522648083623
aF0.6230440967283073
aF0.7433862433862434
aF0.7666666666666667
aF0.6381461675579323
aF0.843915343915344
aF0.7862068965517242
aF0.8064516129032258
aF0.6666666666666666
aF0.8444444444444444
aF0.9705882352941176
aaa(lp76
S'sub-0025876_ses-1_dwi_desikan.gpickle'
p77
a(lp78
F0.5347749853886616
aF0.8774703557312253
aF0.7793650793650794
aF0.6569148936170213
aF0.589098532494759
aF0.638095238095238
aF0.650472334682861
aF0.6645161290322581
aF0.8379446640316206
aF0.7216748768472906
aF0.5971014492753624
aF0.6761904761904762
aF0.7518939393939394
aF0.6584615384615384
aF0.6559139784946236
aF0.8115942028985508
aF0.7411764705882353
aF0.7754010695187166
aF0.7762762762762763
aF0.9210526315789473
aF0.9528985507246377
aF0.6923076923076923
aF0.7849462365591398
aF0.6628019323671498
aF0.7581792318634424
aF0.6711711711711712
aF0.8719211822660099
aF0.7815126050420168
aF0.6130612244897959
aF0.7117117117117117
aF0.6968253968253968
aF0.8086021505376344
aF0.8095238095238095
aF0.8636363636363636
aF0.7692307692307693
aF0.514013749338974
aF0.7948717948717948
aF0.7761904761904762
aF0.6676767676767676
aF0.5494987468671679
aF0.7352941176470589
aF0.6642958748221907
aF0.7063492063492064
aF0.7399193548387096
aF0.8537549407114624
aF0.5703918722786647
aF0.7075098814229249
aF0.7620967741935484
aF0.6438746438746439
aF0.6333333333333333
aF0.8379446640316206
aF0.6653846153846154
aF0.6833333333333333
aF0.8057040998217468
aF0.9714285714285714
aF0.8809523809523809
aF0.7571428571428571
aF0.9130434782608695
aF0.6320921985815603
aF0.6301020408163265
aF0.5656108597285068
aF0.8803418803418803
aF0.8306878306878307
aF0.6312056737588653
aF0.7007575757575758
aF0.7666666666666667
aF0.6639676113360324
aF0.8095238095238095
aF0.8727272727272727
aF0.8857142857142857
aaa(lp79
S'sub-0025876_ses-2_dwi_desikan.gpickle'
p80
a(lp81
F0.5441262419637639
aF0.8575498575498576
aF0.8205645161290323
aF0.6002795248078266
aF0.5695488721804511
aF0.7692307692307693
aF0.7310344827586207
aF0.7264957264957265
aF0.8174603174603174
aF0.7459677419354839
aF0.6012195121951219
aF0.6176470588235294
aF0.7215909090909091
aF0.5811965811965812
aF0.6733870967741935
aF0.7784946236559139
aF0.7973484848484849
aF0.6865853658536586
aF0.7831932773109244
aF0.9761904761904762
aF0.9456521739130435
aF0.7818181818181819
aF0.832258064516129
aF0.6173469387755102
aF0.6754756871035941
aF0.6330014224751067
aF0.825287356321839
aF0.8386243386243386
aF0.5952941176470589
aF0.7367424242424242
aF0.7765151515151515
aF0.8669950738916257
aF0.8666666666666667
aF0.8
aF0.9347826086956522
aF0.5306010928961749
aF0.8374384236453202
aF0.864367816091954
aF0.6531400966183575
aF0.5614035087719298
aF0.6181818181818182
aF0.6341463414634146
aF0.7112299465240641
aF0.7827956989247312
aF0.7977011494252874
aF0.5783744557329463
aF0.6215384615384615
aF0.7318548387096774
aF0.6549707602339181
aF0.7095238095238096
aF0.8689458689458689
aF0.6742532005689901
aF0.7292682926829268
aF0.825287356321839
aF0.978021978021978
aF0.8833333333333333
aF0.8181818181818182
aF0.8068783068783069
aF0.6550724637681159
aF0.6030478955007257
aF0.5855689176688251
aF0.8251231527093597
aF0.812807881773399
aF0.6160962072155411
aF0.75
aF0.8226600985221675
aF0.8225806451612904
aF0.8095238095238095
aF0.8222222222222222
aF0.9411764705882353
aaa(lp82
S'sub-0025877_ses-1_dwi_desikan.gpickle'
p83
a(lp84
F0.47205387205387206
aF0.8840579710144928
aF0.8297101449275363
aF0.516156462585034
aF0.5655391120507399
aF0.6888888888888889
aF0.6993464052287581
aF0.7328042328042328
aF0.8656126482213439
aF0.7692307692307693
aF0.5761024182076814
aF0.6833333333333333
aF0.683076923076923
aF0.5745967741935484
aF0.5380116959064327
aF0.8133333333333334
aF0.746031746031746
aF0.735632183908046
aF0.7101449275362319
aF0.7777777777777778
aF0.8894736842105263
aF0.6703296703296703
aF0.8043478260869565
aF0.6428571428571429
aF0.5769230769230769
aF0.6370967741935484
aF0.7333333333333333
aF0.7922077922077922
aF0.5337763012181617
aF0.7966666666666666
aF0.7222222222222222
aF0.922077922077922
aF0.7142857142857143
aF0.6181818181818182
aF0.9333333333333333
aF0.4558922558922559
aF0.645320197044335
aF0.79
aF0.6453781512605042
aF0.5454545454545454
aF0.6444444444444445
aF0.584045584045584
aF0.6455026455026455
aF0.7952380952380952
aF0.717391304347826
aF0.498989898989899
aF0.6007905138339921
aF0.6306818181818182
aF0.5686274509803921
aF0.5555555555555556
aF0.8157894736842105
aF0.6576354679802956
aF0.6609848484848485
aF0.6512096774193549
aF1.0
aF0.841897233201581
aF0.6373626373626373
aF0.7916666666666666
aF0.6577540106951871
aF0.6261261261261262
aF0.5506072874493927
aF0.8181818181818182
aF0.701058201058201
aF0.6036036036036037
aF0.780952380952381
aF0.701058201058201
aF0.76
aF0.7142857142857143
aF0.9090909090909091
aF0.8
aaa(lp85
S'sub-0025877_ses-2_dwi_desikan.gpickle'
p86
a(lp87
F0.4701298701298701
aF0.9090909090909091
aF0.8586956521739131
aF0.5142857142857142
aF0.5708245243128964
aF0.6785714285714286
aF0.6023391812865497
aF0.6689655172413793
aF0.849802371541502
aF0.7248677248677249
aF0.5705128205128205
aF0.6566666666666666
aF0.6381766381766382
aF0.6086021505376344
aF0.5800865800865801
aF0.69
aF0.7575757575757576
aF0.7118279569892473
aF0.7789855072463768
aF0.7555555555555555
aF0.8528138528138528
aF0.7948717948717948
aF0.8379446640316206
aF0.5951219512195122
aF0.5760743321718932
aF0.6387096774193548
aF0.7236467236467237
aF0.7633333333333333
aF0.4856711915535445
aF0.7866666666666666
aF0.7063492063492064
aF0.919047619047619
aF0.7777777777777778
aF0.6444444444444445
aF0.9264069264069265
aF0.4731494920174166
aF0.6625615763546798
aF0.8266666666666667
aF0.6488413547237076
aF0.5993031358885017
aF0.6111111111111112
aF0.6136363636363636
aF0.6477832512315271
aF0.8
aF0.6825396825396826
aF0.5282828282828282
aF0.6571428571428571
aF0.6566666666666666
aF0.5789473684210527
aF0.5285714285714286
aF0.7944664031620553
aF0.7011494252873564
aF0.6935483870967742
aF0.7222222222222222
aF1.0
aF0.8142292490118577
aF0.6923076923076923
aF0.803030303030303
aF0.6636636636636637
aF0.6486486486486487
aF0.558974358974359
aF0.7777777777777778
aF0.6798029556650246
aF0.6005398110661269
aF0.7476190476190476
aF0.7435897435897436
aF0.75
aF0.7619047619047619
aF0.6666666666666666
aF0.8333333333333334
aaa(lp88
S'sub-0025878_ses-1_dwi_desikan.gpickle'
p89
a(lp90
F0.5063973063973064
aF0.8490028490028491
aF0.7462365591397849
aF0.5893719806763285
aF0.5846438482886216
aF0.7111111111111111
aF0.6996047430830039
aF0.7701149425287356
aF0.84
aF0.798941798941799
aF0.6619047619047619
aF0.6369230769230769
aF0.6772486772486772
aF0.7037037037037037
aF0.6233766233766234
aF0.8333333333333334
aF0.7806267806267806
aF0.782258064516129
aF0.8015873015873016
aF0.9545454545454546
aF0.8656126482213439
aF0.6483516483516484
aF0.7291666666666666
aF0.6280487804878049
aF0.6173361522198731
aF0.7397849462365591
aF0.9150326797385621
aF0.7751322751322751
aF0.580338266384778
aF0.8176638176638177
aF0.7140151515151515
aF0.8766666666666667
aF0.7
aF0.6222222222222222
aF0.9166666666666666
aF0.47796610169491527
aF0.8633333333333333
aF0.8148148148148148
aF0.6423076923076924
aF0.4949874686716792
aF0.6813186813186813
aF0.63
aF0.7789855072463768
aF0.8246153846153846
aF0.7784615384615384
aF0.4949201741654572
aF0.6758893280632411
aF0.6666666666666666
aF0.6353276353276354
aF0.6252873563218391
aF0.8066666666666666
aF0.7157258064516129
aF0.6292682926829268
aF0.6344238975817923
aF1.0
aF0.8893280632411067
aF0.7252747252747253
aF0.968421052631579
aF0.6046511627906976
aF0.6342780026990553
aF0.6173541963015647
aF0.894927536231884
aF0.8616600790513834
aF0.6027874564459931
aF0.8233333333333334
aF0.7671957671957672
aF0.7517241379310344
aF0.6
aF0.8545454545454545
aF0.9177489177489178
aaa(lp91
S'sub-0025878_ses-2_dwi_desikan.gpickle'
p92
a(lp93
F0.47344632768361583
aF0.9004329004329005
aF0.7827956989247312
aF0.5888888888888889
aF0.519916142557652
aF0.6727272727272727
aF0.672514619883041
aF0.77
aF0.8528138528138528
aF0.8152173913043478
aF0.5670731707317073
aF0.677536231884058
aF0.7093596059113301
aF0.6363636363636364
aF0.5555555555555556
aF0.8152173913043478
aF0.7391304347826086
aF0.6329268292682927
aF0.8095238095238095
aF0.8787878787878788
aF0.9169960474308301
aF0.6666666666666666
aF0.7521367521367521
aF0.5719806763285025
aF0.5991140642303433
aF0.6881720430107527
aF0.8761904761904762
aF0.7610837438423645
aF0.5328014184397163
aF0.8188405797101449
aF0.6559139784946236
aF0.7907692307692308
aF0.8
aF0.7142857142857143
aF0.8
aF0.5063973063973064
aF0.692436974789916
aF0.8275862068965517
aF0.6538908246225319
aF0.5806737588652482
aF0.7362637362637363
aF0.6996047430830039
aF0.7419354838709677
aF0.8490028490028491
aF0.7586206896551724
aF0.5792811839323467
aF0.6857142857142857
aF0.6647727272727273
aF0.6772486772486772
aF0.6481481481481481
aF0.7758620689655172
aF0.7083333333333334
aF0.7176470588235294
aF0.7462365591397849
aF0.9857142857142858
aF0.9057971014492754
aF0.738562091503268
aF0.8744588744588745
aF0.6680161943319838
aF0.6451219512195122
aF0.704201680672269
aF0.8215384615384616
aF0.8369230769230769
aF0.598989898989899
aF0.8253968253968254
aF0.7318548387096774
aF0.7806451612903226
aF0.7142857142857143
aF0.7222222222222222
aF1.0
aaa(lp94
S'sub-0025879_ses-1_dwi_desikan.gpickle'
p95
a(lp96
F0.5954941116231439
aF0.8428571428571429
aF0.7932773109243697
aF0.6727272727272727
aF0.6224043715846994
aF0.7252747252747253
aF0.7786774628879892
aF0.7756410256410257
aF0.8538324420677362
aF0.8168168168168168
aF0.6558922558922559
aF0.7384615384615385
aF0.7183600713012478
aF0.7777777777777778
aF0.6391129032258065
aF0.8085365853658537
aF0.7597517730496454
aF0.7903381642512077
aF0.8172043010752689
aF0.8916666666666667
aF0.8953846153846153
aF0.76
aF0.8158730158730159
aF0.6855218855218855
aF0.7003921568627451
aF0.7494949494949495
aF0.8387096774193549
aF0.7870967741935484
aF0.6169491525423729
aF0.7769556025369979
aF0.7047872340425532
aF0.8492176386913229
aF0.8
aF0.7777777777777778
aF0.9187192118226601
aF0.614207650273224
aF0.7848484848484848
aF0.8128342245989305
aF0.6806429070580013
aF0.6364699006428989
aF0.725
aF0.7702702702702703
aF0.7965860597439545
aF0.8299595141700404
aF0.8252100840336134
aF0.6638714185883997
aF0.7609195402298851
aF0.7481060606060606
aF0.7575757575757576
aF0.7489177489177489
aF0.8371212121212122
aF0.8428571428571429
aF0.8118393234672304
aF0.7486157253599114
aF0.9393939393939394
aF0.9456521739130435
aF0.7416666666666667
aF0.8013937282229965
aF0.7031930333817126
aF0.7031930333817126
aF0.6512928022361985
aF0.8188405797101449
aF0.8215384615384616
aF0.6480519480519481
aF0.8313090418353576
aF0.7974358974358975
aF0.8269230769230769
aF0.7857142857142857
aF0.782051282051282
aF0.9692307692307692
aaa(lp97
S'sub-0025879_ses-2_dwi_desikan.gpickle'
p98
a(lp99
F0.5417306707629288
aF0.8551724137931035
aF0.8145161290322581
aF0.6407837445573294
aF0.5745762711864407
aF0.6833333333333333
aF0.7040998217468806
aF0.7471264367816092
aF0.8719211822660099
aF0.8172043010752689
aF0.5972423802612482
aF0.7644927536231884
aF0.6857142857142857
aF0.6837606837606838
aF0.6126482213438735
aF0.8275862068965517
aF0.7738264580369844
aF0.7231450719822813
aF0.7462121212121212
aF0.875
aF0.8306878306878307
aF0.7905138339920948
aF0.773109243697479
aF0.63382250174703
aF0.7156448202959831
aF0.702020202020202
aF0.8172043010752689
aF0.75
aF0.5915584415584415
aF0.7807807807807807
aF0.6951951951951952
aF0.8817733990147784
aF0.8
aF0.6388888888888888
aF0.8804597701149425
aF0.5638418079096045
aF0.7687687687687688
aF0.8143939393939394
aF0.7070707070707071
aF0.588021778584392
aF0.7333333333333333
aF0.7483870967741936
aF0.7206349206349206
aF0.7966386554621848
aF0.7973484848484849
aF0.5717171717171717
aF0.7264957264957265
aF0.7399193548387096
aF0.670995670995671
aF0.7351778656126482
aF0.8042328042328042
aF0.7807486631016043
aF0.7308970099667774
aF0.7967914438502673
aF0.948051948051948
aF0.9619047619047619
aF0.9696969696969697
aF0.7653846153846153
aF0.6760204081632653
aF0.6611764705882353
aF0.6170212765957447
aF0.8092307692307692
aF0.8768115942028986
aF0.6675531914893617
aF0.7567567567567568
aF0.765079365079365
aF0.8222222222222222
aF0.75
aF0.696969696969697
aF0.9782608695652174
aaa(lp100
S'sub-0025880_ses-1_dwi_desikan.gpickle'
p101
a(lp102
F0.4856743535988819
aF0.8571428571428571
aF0.7463768115942029
aF0.7031746031746032
aF0.5584541062801932
aF0.6428571428571429
aF0.5969230769230769
aF0.7178030303030303
aF0.8571428571428571
aF0.7634408602150538
aF0.5902439024390244
aF0.6190476190476191
aF0.583743842364532
aF0.6367816091954023
aF0.5541125541125541
aF0.7962962962962963
aF0.6501501501501501
aF0.8833333333333333
aF0.770935960591133
aF0.9523809523809523
aF0.8011695906432749
aF0.9010989010989011
aF0.873015873015873
aF0.7698924731182796
aF0.8374384236453202
aF0.6032388663967612
aF0.7272727272727273
aF0.70995670995671
aF0.6473118279569893
aF0.7733333333333333
aF0.7885057471264367
aF0.8251231527093597
aF0.6666666666666666
aF0.6909090909090909
aF0.9266666666666666
aF0.4617794486215539
aF0.7633333333333333
aF0.7384615384615385
aF0.5900900900900901
aF0.5068027210884354
aF0.7333333333333333
aF0.6679841897233202
aF0.6114942528735632
aF0.7575757575757576
aF0.7246376811594203
aF0.4815686274509804
aF0.638095238095238
aF0.644927536231884
aF0.6405228758169934
aF0.6
aF0.758893280632411
aF0.7138461538461538
aF0.574750830564784
aF0.7142857142857143
aF0.8717948717948718
aF0.8011695906432749
aF0.7424242424242424
aF0.7894736842105263
aF0.5525252525252525
aF0.5410628019323671
aF0.5155195681511471
aF0.7662337662337663
aF0.7056277056277056
aF0.5190274841437632
aF0.7947368421052632
aF0.6455026455026455
aF0.9005847953216374
aF0.6666666666666666
aF0.75
aF0.925
aaa(lp103
S'sub-0025880_ses-2_dwi_desikan.gpickle'
p104
a(lp105
F0.4807826694619147
aF0.8349753694581281
aF0.7905138339920948
aF0.7075630252100841
aF0.5710144927536231
aF0.7121212121212122
aF0.532608695652174
aF0.6720142602495544
aF0.8537549407114624
aF0.7419354838709677
aF0.59465737514518
aF0.6789473684210526
aF0.5591397849462365
aF0.7225806451612903
aF0.5810276679841897
aF0.8148148148148148
aF0.6606606606606606
aF0.9088319088319088
aF0.8333333333333334
aF0.9523809523809523
aF0.8676470588235294
aF0.7720588235294118
aF0.9116809116809117
aF0.7862903225806451
aF0.8021505376344086
aF0.6153846153846154
aF0.7233201581027668
aF0.7229437229437229
aF0.6655462184873949
aF0.7965367965367965
aF0.7741935483870968
aF0.8756613756613757
aF0.8
aF0.75
aF0.9710144927536232
aF0.4513006654567453
aF0.7261538461538461
aF0.7866666666666666
aF0.5855855855855856
aF0.49129172714078373
aF0.6538461538461539
aF0.7391304347826086
aF0.6305418719211823
aF0.7748917748917749
aF0.7133333333333334
aF0.5044897959183674
aF0.6405228758169934
aF0.6966666666666667
aF0.5947368421052631
aF0.6428571428571429
aF0.7747035573122529
aF0.7628458498023716
aF0.5923344947735192
aF0.7095238095238096
aF0.8717948717948718
aF0.8300653594771242
aF0.7564102564102564
aF0.9047619047619048
aF0.5507246376811594
aF0.5093877551020408
aF0.5141700404858299
aF0.7549407114624506
aF0.7463768115942029
aF0.5326688815060908
aF0.8
aF0.6587301587301587
aF0.8476190476190476
aF0.8545454545454545
aF0.6888888888888889
aF0.9238095238095239
aaa(lp106
S'sub-0025881_ses-1_dwi_desikan.gpickle'
p107
a(lp108
F0.4971838197644649
aF0.8078817733990148
aF0.7609195402298851
aF0.6492450638792102
aF0.5344611528822055
aF0.6666666666666666
aF0.6245059288537549
aF0.6880570409982175
aF0.8656126482213439
aF0.774712643678161
aF0.5615686274509804
aF0.7761904761904762
aF0.7366666666666667
aF0.6533333333333333
aF0.6147186147186147
aF0.8042328042328042
aF0.75
aF0.7038461538461539
aF0.7139784946236559
aF0.8833333333333333
aF0.8952380952380953
aF0.8484848484848485
aF0.7240398293029872
aF0.6179463459759482
aF0.6562137049941928
aF0.5971014492753624
aF0.798941798941799
aF0.7479838709677419
aF0.5909090909090909
aF0.7254901960784313
aF0.7142857142857143
aF0.7462462462462462
aF0.8583333333333333
aF0.6222222222222222
aF0.8544973544973545
aF0.5056497175141242
aF0.7064102564102565
aF0.7560483870967742
aF0.7137096774193549
aF0.5506493506493506
aF0.6666666666666666
aF0.5868945868945868
aF0.6984126984126984
aF0.8290598290598291
aF0.7862068965517242
aF0.5639412997903563
aF0.7619047619047619
aF0.6495726495726496
aF0.8105263157894737
aF0.6466666666666666
aF0.8029556650246306
aF0.6602150537634408
aF0.7579831932773109
aF0.84
aF1.0
aF0.8245614035087719
aF0.7692307692307693
aF0.7425287356321839
aF0.7344028520499108
aF0.6490486257928119
aF0.5357142857142857
aF0.7339901477832512
aF0.7521367521367521
aF0.6158536585365854
aF0.7784946236559139
aF0.6136363636363636
aF0.7412698412698413
aF0.7142857142857143
aF0.7424242424242424
aF0.8238095238095238
aaa(lp109
S'sub-0025881_ses-2_dwi_desikan.gpickle'
p110
a(lp111
F0.49762030671602325
aF0.7807881773399015
aF0.7651515151515151
aF0.6260869565217392
aF0.5415584415584416
aF0.6923076923076923
aF0.6571428571428571
aF0.6648841354723708
aF0.8484848484848485
aF0.7076612903225806
aF0.524132730015083
aF0.7516339869281046
aF0.7561576354679803
aF0.5788177339901478
aF0.6753246753246753
aF0.7247311827956989
aF0.7103448275862069
aF0.6728307254623044
aF0.6720142602495544
aF0.967032967032967
aF0.9021739130434783
aF0.8484848484848485
aF0.7109243697478992
aF0.6223698781838317
aF0.6951951951951952
aF0.5789473684210527
aF0.8086021505376344
aF0.7741935483870968
aF0.6270531400966184
aF0.7538461538461538
aF0.7881773399014779
aF0.9238095238095239
aF0.8523809523809524
aF0.6363636363636364
aF0.88
aF0.5067796610169492
aF0.6941678520625889
aF0.8160919540229885
aF0.6948717948717948
aF0.5969387755102041
aF0.6444444444444445
aF0.6438746438746439
aF0.6234817813765182
aF0.8091168091168092
aF0.8005698005698005
aF0.5373737373737374
aF0.6995073891625616
aF0.6995073891625616
aF0.7154150197628458
aF0.6190476190476191
aF0.8005698005698005
aF0.6602150537634408
aF0.8114942528735632
aF0.8137931034482758
aF0.9333333333333333
aF0.8290598290598291
aF0.7017543859649122
aF0.7219251336898396
aF0.7613636363636364
aF0.6376811594202898
aF0.5595238095238095
aF0.8374384236453202
aF0.791005291005291
aF0.6882591093117408
aF0.7671957671957672
aF0.5829268292682926
aF0.6756410256410257
aF0.8214285714285714
aF0.75
aF0.8744588744588745
aaa(lp112
S'sub-0025882_ses-1_dwi_desikan.gpickle'
p113
a(lp114
F0.5174863387978142
aF0.7447447447447447
aF0.8376068376068376
aF0.6643437862950058
aF0.5632832080200502
aF0.7051282051282052
aF0.7207977207977208
aF0.7058029689608637
aF0.819047619047619
aF0.7058029689608637
aF0.6037414965986394
aF0.7238095238095238
aF0.65
aF0.6933333333333334
aF0.6238095238095238
aF0.7736185383244206
aF0.8172043010752689
aF0.6917874396135266
aF0.6705128205128205
aF0.9166666666666666
aF0.8713450292397661
aF0.7362637362637363
aF0.825287356321839
aF0.613933236574746
aF0.6710992907801419
aF0.7260504201680672
aF0.780952380952381
aF0.7236467236467237
aF0.5990338164251208
aF0.7379679144385026
aF0.7612612612612613
aF0.9145299145299145
aF0.7142857142857143
aF0.7111111111111111
aF0.903448275862069
aF0.5265536723163842
aF0.8163992869875223
aF0.86
aF0.7201426024955436
aF0.5620300751879699
aF0.8133333333333334
aF0.6789473684210526
aF0.7387387387387387
aF0.8881720430107527
aF0.7771836007130125
aF0.5858823529411765
aF0.7857142857142857
aF0.6689655172413793
aF0.7312312312312312
aF0.631578947368421
aF0.8624338624338624
aF0.7630769230769231
aF0.6808510638297872
aF0.8092307692307692
aF0.9242424242424242
aF0.8809523809523809
aF0.8148148148148148
aF0.7301587301587301
aF0.6454081632653061
aF0.6037234042553191
aF0.5740203193033382
aF0.8138528138528138
aF0.7464387464387464
aF0.6648841354723708
aF0.8709677419354839
aF0.774712643678161
aF0.7395411605937922
aF0.8095238095238095
aF0.8
aF0.9818181818181818
aaa(lp115
S'sub-0025882_ses-2_dwi_desikan.gpickle'
p116
a(lp117
F0.5327683615819209
aF0.8508064516129032
aF0.7044534412955465
aF0.6666666666666666
aF0.5626566416040101
aF0.6593406593406593
aF0.8121693121693122
aF0.8003565062388592
aF0.8505747126436781
aF0.8003565062388592
aF0.6926829268292682
aF0.6842105263157895
aF0.6798941798941799
aF0.7741935483870968
aF0.7035573122529645
aF0.8645320197044335
aF0.8181818181818182
aF0.8048048048048048
aF0.8461538461538461
aF0.8916666666666667
aF0.8461538461538461
aF0.672514619883041
aF0.8222222222222222
aF0.6329411764705882
aF0.7560975609756098
aF0.7672672672672672
aF0.7748917748917749
aF0.7476923076923077
aF0.5682148040638607
aF0.8163992869875223
aF0.7966386554621848
aF0.8003003003003003
aF0.8928571428571429
aF0.6
aF0.9682539682539683
aF0.5229508196721312
aF0.7956989247311828
aF0.7428571428571429
aF0.7507507507507507
aF0.5505552308591467
aF0.7307692307692307
aF0.6903225806451613
aF0.7075630252100841
aF0.8152709359605911
aF0.7701612903225806
aF0.5737373737373738
aF0.70995670995671
aF0.6753246753246753
aF0.6766666666666666
aF0.6363636363636364
aF0.87
aF0.716927453769559
aF0.7004830917874396
aF0.811965811965812
aF0.9523809523809523
aF0.8382352941176471
aF0.7777777777777778
aF0.7792207792207793
aF0.6710992907801419
aF0.6133333333333333
aF0.549266247379455
aF0.7714285714285715
aF0.7166666666666667
aF0.5640816326530612
aF0.7196969696969697
aF0.6951219512195121
aF0.7090909090909091
aF0.8571428571428571
aF0.7555555555555555
aF0.961038961038961
aaa(lp118
S'sub-0025883_ses-1_dwi_desikan.gpickle'
p119
a(lp120
F0.5175438596491229
aF0.853763440860215
aF0.9166666666666666
aF0.6179078014184397
aF0.5682148040638607
aF0.6
aF0.7316017316017316
aF0.7931034482758621
aF0.8623188405797102
aF0.8125
aF0.6634146341463415
aF0.7628458498023716
aF0.6795698924731183
aF0.7761904761904762
aF0.677536231884058
aF0.8522167487684729
aF0.7701612903225806
aF0.7899159663865546
aF0.8615384615384616
aF1.0
aF0.8461538461538461
aF0.7
aF0.8505747126436781
aF0.6522702104097453
aF0.6792682926829269
aF0.7394957983193278
aF0.7606837606837606
aF0.7569892473118279
aF0.5828571428571429
aF0.8193548387096774
aF0.7664884135472371
aF0.8620689655172413
aF0.8666666666666667
aF0.75
aF0.8990147783251231
aF0.4858757062146893
aF0.735632183908046
aF0.9033333333333333
aF0.726984126984127
aF0.5272727272727272
aF0.6944444444444444
aF0.7275132275132276
aF0.7166666666666667
aF0.8304093567251462
aF0.7318840579710145
aF0.5498039215686275
aF0.7210526315789474
aF0.6873949579831933
aF0.6166666666666667
aF0.8052631578947368
aF0.8538011695906432
aF0.6537634408602151
aF0.65
aF0.8840579710144928
aF0.9476190476190476
aF0.8985507246376812
aF0.7263157894736842
aF0.6854838709677419
aF0.6028911564625851
aF0.55052790346908
aF0.5280612244897959
aF0.8306878306878307
aF0.8325123152709359
aF0.6270531400966184
aF0.847953216374269
aF0.7413793103448276
aF0.7517241379310344
aF0.9
aF0.8055555555555556
aF0.9636363636363636
aaa(lp121
S'sub-0025883_ses-2_dwi_desikan.gpickle'
p122
a(lp123
F0.43892460549386325
aF0.9288537549407114
aF0.8260869565217391
aF0.5964912280701754
aF0.5444444444444444
aF0.7428571428571429
aF0.5396825396825397
aF0.7507692307692307
aF0.9130434782608695
aF0.8478260869565217
aF0.5668016194331984
aF0.8043478260869565
aF0.6524216524216524
aF0.68
aF0.6007905138339921
aF0.9047619047619048
aF0.582995951417004
aF0.6653225806451613
aF0.72
aF0.9444444444444444
aF0.8380952380952381
aF0.7792207792207793
aF0.83
aF0.6559139784946236
aF0.6066066066066066
aF0.7266009852216748
aF0.7266009852216748
aF0.782608695652174
aF0.5481727574750831
aF0.7938461538461539
aF0.7592592592592593
aF0.894927536231884
aF0.8545454545454545
aF0.6428571428571429
aF0.8633333333333333
aF0.4751131221719457
aF0.8333333333333334
aF0.8061538461538461
aF0.6244665718349929
aF0.5373737373737374
aF0.6071428571428571
aF0.7293447293447294
aF0.6640211640211641
aF0.7521367521367521
aF0.7549857549857549
aF0.46980392156862744
aF0.6339869281045751
aF0.6666666666666666
aF0.675
aF0.6956521739130435
aF0.7784615384615384
aF0.716931216931217
aF0.6838709677419355
aF0.7934782608695652
aF1.0
aF0.8830409356725146
aF0.8909090909090909
aF0.7748917748917749
aF0.5987179487179487
aF0.6201201201201201
aF0.5630630630630631
aF0.7681159420289855
aF0.7507692307692307
aF0.5634146341463414
aF0.7316017316017316
aF0.7966666666666666
aF0.8333333333333334
aF0.8055555555555556
aF0.8333333333333334
aF0.989010989010989
aaa(lp124
S'sub-0025884_ses-1_dwi_desikan.gpickle'
p125
a(lp126
F0.45254237288135596
aF0.9064327485380117
aF0.8804347826086957
aF0.5789473684210527
aF0.502177068214804
aF0.6593406593406593
aF0.6493506493506493
aF0.6646153846153846
aF0.7944664031620553
aF0.7549407114624506
aF0.5492063492063493
aF0.6928104575163399
aF0.6164021164021164
aF0.677536231884058
aF0.605072463768116
aF0.8235294117647058
aF0.6719367588932806
aF0.6640211640211641
aF0.6287878787878788
aF1.0
aF0.8152173913043478
aF0.7912087912087912
aF0.8736842105263158
aF0.5256038647342995
aF0.575075075075075
aF0.5587301587301587
aF0.7753623188405797
aF0.7578347578347578
aF0.5138427464008859
aF0.6481481481481481
aF0.7261538461538461
aF0.8476190476190476
aF0.8571428571428571
aF0.75
aF0.8970588235294118
aF0.5113122171945701
aF0.9021739130434783
aF0.8068783068783069
aF0.7399193548387096
aF0.598989898989899
aF0.6363636363636364
aF0.6203208556149733
aF0.8153846153846154
aF0.8953846153846153
aF0.8768115942028986
aF0.5514184397163121
aF0.782608695652174
aF0.6650246305418719
aF0.6403162055335968
aF0.6142857142857143
aF0.9021739130434783
aF0.6746031746031746
aF0.7520161290322581
aF0.7777777777777778
aF0.8909090909090909
aF0.8063241106719368
aF0.9090909090909091
aF0.7677419354838709
aF0.7075630252100841
aF0.6178861788617886
aF0.5762483130904184
aF0.7538461538461538
aF0.8221343873517787
aF0.6301564722617354
aF0.7116935483870968
aF0.7419354838709677
aF0.8275862068965517
aF0.8
aF0.8888888888888888
aF0.9347826086956522
aaa(lp127
S'sub-0025884_ses-2_dwi_desikan.gpickle'
p128
a(lp129
F0.47627118644067795
aF0.8654970760233918
aF0.8985507246376812
aF0.5983086680761099
aF0.5131313131313131
aF0.6363636363636364
aF0.6630434782608695
aF0.6428571428571429
aF0.8052631578947368
aF0.717391304347826
aF0.6096256684491979
aF0.5808823529411765
aF0.6365591397849463
aF0.7426900584795322
aF0.6574712643678161
aF0.8088235294117647
aF0.6280788177339901
aF0.6031746031746031
aF0.7784615384615384
aF1.0
aF0.8831168831168831
aF0.9555555555555556
aF0.8311688311688312
aF0.5624421831637373
aF0.5559246954595792
aF0.5682539682539682
aF0.7857142857142857
aF0.7833333333333333
aF0.5188536953242836
aF0.6809116809116809
aF0.6699507389162561
aF0.8142292490118577
aF0.8571428571428571
aF0.75
aF0.8583333333333333
aF0.5138047138047138
aF0.8624338624338624
aF0.8290598290598291
aF0.7344028520499108
aF0.6222222222222222
aF0.7222222222222222
aF0.6723484848484849
aF0.7671957671957672
aF0.8574712643678161
aF0.7931034482758621
aF0.5855689176688251
aF0.7833333333333333
aF0.68
aF0.7445887445887446
aF0.6521739130434783
aF0.8004926108374384
aF0.7520161290322581
aF0.7878787878787878
aF0.8042328042328042
aF0.8571428571428571
aF0.8658008658008658
aF0.8476190476190476
aF0.88
aF0.7378151260504202
aF0.6323232323232323
aF0.5665961945031712
aF0.7645502645502645
aF0.782608695652174
aF0.6046511627906976
aF0.7329545454545454
aF0.7720430107526882
aF0.8574712643678161
aF0.8055555555555556
aF0.8545454545454545
aF0.9094202898550725
aaa(lp130
S'sub-0025885_ses-1_dwi_desikan.gpickle'
p131
a(lp132
F0.5910465819721719
aF0.8618618618618619
aF0.7447447447447447
aF0.6656565656565656
aF0.5940713853599516
aF0.8076923076923077
aF0.6623376623376623
aF0.7884615384615384
aF0.8698412698412699
aF0.8043184885290149
aF0.6505102040816326
aF0.7953216374269005
aF0.6945812807881774
aF0.8079658605974396
aF0.6584615384615384
aF0.8560606060606061
aF0.8645276292335116
aF0.7494949494949495
aF0.8952380952380953
aF1.0
aF0.9052631578947369
aF0.9619047619047619
aF0.8828828828828829
aF0.7594202898550725
aF0.7212121212121212
aF0.7935897435897435
aF0.85
aF0.8225108225108225
aF0.600177304964539
aF0.8245614035087719
aF0.8313090418353576
aF0.8677098150782361
aF0.8928571428571429
aF0.8
aF0.9950738916256158
aF0.5606557377049181
aF0.8243589743589743
aF0.7555555555555555
aF0.7357357357357357
aF0.5902980713033313
aF1.0
aF0.7526881720430108
aF0.751219512195122
aF0.8183908045977012
aF0.7854251012145749
aF0.6242424242424243
aF0.7905138339920948
aF0.7264957264957265
aF0.7762096774193549
aF0.6650246305418719
aF0.8701298701298701
aF0.7225177304964538
aF0.7400555041628122
aF0.7931034482758621
aF1.0
aF0.8695652173913043
aF0.9607843137254902
aF0.8276515151515151
aF0.7419056429232193
aF0.6710992907801419
aF0.6114478114478115
aF0.8430769230769231
aF0.7645502645502645
aF0.6602564102564102
aF0.7429951690821256
aF0.7382053654024052
aF0.7603864734299517
aF0.9642857142857143
aF0.7272727272727273
aF0.893048128342246
aaa(lp133
S'sub-0025885_ses-2_dwi_desikan.gpickle'
p134
a(lp135
F0.48360655737704916
aF0.9264069264069265
aF0.714795008912656
aF0.580338266384778
aF0.5020455873758036
aF0.85
aF0.6617647058823529
aF0.7834757834757835
aF0.9134199134199135
aF0.82
aF0.5696969696969697
aF0.8095238095238095
aF0.6324110671936759
aF0.6748768472906403
aF0.5766666666666667
aF0.8333333333333334
aF0.7753846153846153
aF0.6252525252525253
aF0.8061538461538461
aF1.0
aF0.8051948051948052
aF0.8526315789473684
aF0.6984126984126984
aF0.6063829787234043
aF0.5833333333333334
aF0.6294871794871795
aF0.8187134502923976
aF0.7353846153846154
aF0.5833333333333334
aF0.7402298850574712
aF0.7815384615384615
aF0.7505376344086021
aF0.8888888888888888
aF0.7222222222222222
aF0.9789473684210527
aF0.5015124016938899
aF0.8645320197044335
aF0.8054187192118226
aF0.7344028520499108
aF0.598404255319149
aF0.6222222222222222
aF0.6210526315789474
aF0.7142857142857143
aF0.8137931034482758
aF0.8227513227513228
aF0.5608163265306122
aF0.7318548387096774
aF0.6581196581196581
aF0.7632183908045977
aF0.5846560846560847
aF0.8
aF0.7225806451612903
aF0.7368421052631579
aF0.8290598290598291
aF0.9047619047619048
aF0.9005847953216374
aF0.9230769230769231
aF0.812807881773399
aF0.7522522522522522
aF0.7125506072874493
aF0.5926829268292683
aF0.7833333333333333
aF0.75
aF0.6330014224751067
aF0.7782258064516129
aF0.7727272727272727
aF0.853763440860215
aF0.8333333333333334
aF0.7777777777777778
aF0.9941520467836257
aaa(lp136
S'sub-0025886_ses-1_dwi_desikan.gpickle'
p137
a(lp138
F0.5207843137254902
aF0.8201058201058201
aF0.8616600790513834
aF0.6333333333333333
aF0.5696969696969697
aF0.8088235294117647
aF0.8062678062678063
aF0.7758620689655172
aF0.8853754940711462
aF0.7758620689655172
aF0.6036585365853658
aF0.6847826086956522
aF0.6058201058201058
aF0.6477832512315271
aF0.6333333333333333
aF0.8138528138528138
aF0.7980295566502463
aF0.7142857142857143
aF0.7792207792207793
aF0.7142857142857143
aF0.7965367965367965
aF0.695906432748538
aF0.8478260869565217
aF0.6714285714285714
aF0.6268292682926829
aF0.6684491978609626
aF0.7407407407407407
aF0.7748917748917749
aF0.5602536997885835
aF0.7439516129032258
aF0.6774193548387096
aF0.9421052631578948
aF0.9047619047619048
aF0.6785714285714286
aF0.8233333333333334
aF0.4655388471177945
aF0.6218487394957983
aF0.8260869565217391
aF0.5858974358974359
aF0.5274822695035462
aF0.6888888888888889
aF0.6174603174603175
aF0.7094017094017094
aF0.8787878787878788
aF0.8476190476190476
aF0.5804878048780487
aF0.68
aF0.6182336182336182
aF0.6640211640211641
aF0.6476190476190476
aF0.8421052631578947
aF0.6333333333333333
aF0.6285714285714286
aF0.8366013071895425
aF0.8095238095238095
aF0.8241758241758241
aF0.8210526315789474
aF0.8831168831168831
aF0.6246246246246246
aF0.5439613526570048
aF0.5705705705705706
aF0.7359307359307359
aF0.7075098814229249
aF0.5023126734505088
aF0.8787878787878788
aF0.7230769230769231
aF0.922077922077922
aF0.8928571428571429
aF0.8055555555555556
aF0.9333333333333333
aaa(lp139
S'sub-0025886_ses-2_dwi_desikan.gpickle'
p140
a(lp141
F0.5
aF0.7278225806451613
aF0.822463768115942
aF0.6531531531531531
aF0.5616161616161616
aF0.7564102564102564
aF0.7101449275362319
aF0.6931818181818182
aF0.8761904761904762
aF0.6931818181818182
aF0.5860597439544808
aF0.6666666666666666
aF0.5866666666666667
aF0.6833333333333333
aF0.5731225296442688
aF0.6903225806451613
aF0.7463054187192119
aF0.6711711711711712
aF0.7786561264822134
aF0.8095238095238095
aF0.8210526315789474
aF0.7692307692307693
aF0.7266666666666667
aF0.6516516516516516
aF0.6269230769230769
aF0.6895161290322581
aF0.75
aF0.7282608695652174
aF0.562137049941928
aF0.8066666666666666
aF0.6403361344537815
aF0.9
aF0.8571428571428571
aF0.7142857142857143
aF0.7839080459770115
aF0.4733766233766234
aF0.6895161290322581
aF0.7433333333333333
aF0.5381642512077295
aF0.5505050505050505
aF0.7526315789473684
aF0.6666666666666666
aF0.7435897435897436
aF0.9367588932806324
aF0.8658008658008658
aF0.5772357723577236
aF0.76
aF0.6268115942028986
aF0.7044334975369458
aF0.6017316017316018
aF0.9210526315789473
aF0.6396825396825396
aF0.66890756302521
aF0.7316017316017316
aF0.8727272727272727
aF0.9090909090909091
aF0.9789473684210527
aF0.7723076923076924
aF0.6307692307692307
aF0.5257142857142857
aF0.5506072874493927
aF0.7476190476190476
aF0.7421052631578947
aF0.4857142857142857
aF0.7517241379310344
aF0.5705705705705706
aF0.798941798941799
aF0.7857142857142857
aF0.7777777777777778
aF0.9367588932806324
aaa(lp142
S'sub-0025887_ses-1_dwi_desikan.gpickle'
p143
a(lp144
F0.5383116883116883
aF0.86
aF0.8571428571428571
aF0.6575052854122622
aF0.5747460087082729
aF0.6143790849673203
aF0.701058201058201
aF0.7606837606837606
aF0.8578947368421053
aF0.7724867724867724
aF0.5868686868686869
aF0.6900584795321637
aF0.7032258064516129
aF0.5770750988142292
aF0.6047430830039525
aF0.803076923076923
aF0.7807881773399015
aF0.7260504201680672
aF0.8300492610837439
aF1.0
aF0.8616600790513834
aF0.7575757575757576
aF0.6759581881533101
aF0.6251207729468599
aF0.6028911564625851
aF0.6358974358974359
aF0.8769230769230769
aF0.7701149425287356
aF0.6480836236933798
aF0.680161943319838
aF0.7272727272727273
aF0.7486631016042781
aF0.8095238095238095
aF0.7555555555555555
aF0.91
aF0.49491525423728816
aF0.7505376344086021
aF0.8746438746438746
aF0.726984126984127
aF0.5515151515151515
aF0.7777777777777778
aF0.6866666666666666
aF0.6695156695156695
aF0.7182795698924731
aF0.7753623188405797
aF0.5437405731523378
aF0.6666666666666666
aF0.6923076923076923
aF0.5490196078431373
aF0.6153846153846154
aF0.8142857142857143
aF0.6559714795008913
aF0.7428571428571429
aF0.8423645320197044
aF0.9642857142857143
aF0.8366666666666667
aF0.7279411764705882
aF0.7670454545454546
aF0.6020408163265306
aF0.6633444075304541
aF0.5696969696969697
aF0.8227513227513228
aF0.7962962962962963
aF0.6557610241820768
aF0.7448275862068966
aF0.76
aF0.7677419354838709
aF0.8666666666666667
aF0.7424242424242424
aF0.9636363636363636
aaa(lp145
S'sub-0025887_ses-2_dwi_desikan.gpickle'
p146
a(lp147
F0.4993734335839599
aF0.8904761904761904
aF0.8325123152709359
aF0.6405919661733616
aF0.5497737556561086
aF0.696969696969697
aF0.6761904761904762
aF0.7036290322580645
aF0.9052631578947369
aF0.7512315270935961
aF0.5878787878787879
aF0.70995670995671
aF0.7358870967741935
aF0.7114624505928854
aF0.5974025974025974
aF0.7717391304347826
aF0.6844919786096256
aF0.7005347593582888
aF0.7272727272727273
aF0.6
aF0.8478260869565217
aF0.7205882352941176
aF0.7165775401069518
aF0.6389811738648948
aF0.6680161943319838
aF0.6153846153846154
aF0.8584615384615385
aF0.7977207977207977
aF0.6585365853658537
aF0.7058823529411765
aF0.6967741935483871
aF0.7379032258064516
aF0.8529411764705882
aF0.6373626373626373
aF0.8701298701298701
aF0.48154869933454325
aF0.6746031746031746
aF0.8707692307692307
aF0.6283391405342624
aF0.5586734693877551
aF0.6813186813186813
aF0.6438746438746439
aF0.7272727272727273
aF0.6984615384615385
aF0.7402597402597403
aF0.5354449472096531
aF0.6883116883116883
aF0.6666666666666666
aF0.6105263157894737
aF0.6406926406926406
aF0.7666666666666667
aF0.6169354838709677
aF0.7096774193548387
aF0.9288537549407114
aF1.0
aF0.8659420289855072
aF0.7076023391812866
aF0.7464387464387464
aF0.6842105263157895
aF0.566530612244898
aF0.5656213704994193
aF0.7863247863247863
aF0.7563218390804598
aF0.6402439024390244
aF0.7142857142857143
aF0.7516339869281046
aF0.6739495798319328
aF0.6666666666666666
aF0.7777777777777778
aF0.9722222222222222
aaa(lp148
S'sub-0025888_ses-1_dwi_desikan.gpickle'
p149
a(lp150
F0.48759830611010285
aF0.8472906403940886
aF0.7876923076923077
aF0.6597560975609756
aF0.5718085106382979
aF0.6212121212121212
aF0.5548387096774193
aF0.7348484848484849
aF0.8857142857142857
aF0.7741935483870968
aF0.6097560975609756
aF0.719047619047619
aF0.6866666666666666
aF0.6366666666666667
aF0.6630434782608695
aF0.7758620689655172
aF0.5663865546218487
aF0.8183908045977012
aF0.7068965517241379
aF0.9358974358974359
aF0.7433333333333333
aF0.8455882352941176
aF0.7277310924369748
aF0.6586059743954481
aF0.6666666666666666
aF0.5936507936507937
aF0.708994708994709
aF0.7633333333333333
aF0.6283391405342624
aF0.7234848484848485
aF0.7329545454545454
aF0.8472906403940886
aF0.75
aF0.7142857142857143
aF0.8831908831908832
aF0.49364791288566245
aF0.7364532019704434
aF0.8188405797101449
aF0.6458036984352774
aF0.5364705882352941
aF0.6111111111111112
aF0.6363636363636364
aF0.7122507122507122
aF0.8695652173913043
aF0.7407407407407407
aF0.5595959595959596
aF0.6695156695156695
aF0.6324786324786325
aF0.6617647058823529
aF0.6428571428571429
aF0.7966666666666666
aF0.6476190476190476
aF0.6546546546546547
aF0.7036290322580645
aF1.0
aF0.8079710144927537
aF0.7714285714285715
aF0.7471264367816092
aF0.6079734219269103
aF0.5542857142857143
aF0.6095238095238096
aF0.7364532019704434
aF0.7753623188405797
aF0.5184313725490196
aF0.7366666666666667
aF0.7707509881422925
aF0.8932806324110671
aF0.6
aF0.75
aF0.9333333333333333
aaa(lp151
S'sub-0025888_ses-2_dwi_desikan.gpickle'
p152
a(lp153
F0.4615819209039548
aF0.8461538461538461
aF0.7415384615384616
aF0.6903225806451613
aF0.5652173913043478
aF0.6666666666666666
aF0.5172413793103449
aF0.735632183908046
aF0.8333333333333334
aF0.770935960591133
aF0.5644820295983086
aF0.6926406926406926
aF0.7878787878787878
aF0.7402597402597403
aF0.6847826086956522
aF0.770935960591133
aF0.6261808367071525
aF0.8676923076923077
aF0.7101449275362319
aF0.9358974358974359
aF0.782608695652174
aF0.8131868131868132
aF0.6957983193277311
aF0.6898395721925134
aF0.6793650793650794
aF0.5721925133689839
aF0.7753623188405797
aF0.7608695652173914
aF0.6850574712643678
aF0.6923076923076923
aF0.7471264367816092
aF0.8689458689458689
aF0.75
aF0.8095238095238095
aF0.7698412698412699
aF0.4722384570426651
aF0.8068783068783069
aF0.7753623188405797
aF0.6880570409982175
aF0.5181422351233672
aF0.6388888888888888
aF0.7463054187192119
aF0.6881720430107527
aF0.8466666666666667
aF0.7635467980295566
aF0.5075414781297134
aF0.7065217391304348
aF0.6068965517241379
aF0.6081871345029239
aF0.6231884057971014
aF0.81
aF0.7471264367816092
aF0.6571834992887624
aF0.7863247863247863
aF1.0
aF0.8476190476190476
aF0.9090909090909091
aF0.7358870967741935
aF0.5940803382663847
aF0.5806763285024155
aF0.5883940620782726
aF0.7063492063492064
aF0.8047619047619048
aF0.5007256894049347
aF0.7236467236467237
aF0.7948717948717948
aF0.8738461538461538
aF0.6
aF0.75
aF0.9926470588235294
aaa(lp154
S'sub-0025889_ses-1_dwi_desikan.gpickle'
p155
a(lp156
F0.5145137880986937
aF0.8262108262108262
aF0.774712643678161
aF0.6111111111111112
aF0.580018501387604
aF0.6363636363636364
aF0.6992753623188406
aF0.7463054187192119
aF0.8368421052631579
aF0.7463054187192119
aF0.615931721194879
aF0.783625730994152
aF0.6883116883116883
aF0.6324110671936759
aF0.5672514619883041
aF0.8369565217391305
aF0.78
aF0.7459677419354839
aF0.7053763440860215
aF1.0
aF0.8583333333333333
aF0.6043956043956044
aF0.7219251336898396
aF0.6771771771771772
aF0.6
aF0.6258890469416786
aF0.8052631578947368
aF0.7261538461538461
aF0.5567375886524822
aF0.7666666666666667
aF0.791005291005291
aF0.8253968253968254
aF0.8
aF0.6
aF0.9166666666666666
aF0.4824561403508772
aF0.8571428571428571
aF0.8433048433048433
aF0.6801801801801802
aF0.5174165457184325
aF0.7555555555555555
aF0.6133004926108374
aF0.7233333333333334
aF0.7922077922077922
aF0.7608695652173914
aF0.5272895467160037
aF0.6928104575163399
aF0.6623655913978495
aF0.5620915032679739
aF0.6182266009852216
aF0.8523809523809524
aF0.716931216931217
aF0.7354838709677419
aF0.9057971014492754
aF1.0
aF0.8952380952380953
aF0.7454545454545455
aF0.7487684729064039
aF0.6991596638655462
aF0.5647163120567376
aF0.581646423751687
aF0.8184615384615385
aF0.8007246376811594
aF0.5782241014799154
aF0.8047619047619048
aF0.6504201680672269
aF0.7215909090909091
aF1.0
aF0.6388888888888888
aF1.0
aaa(lp157
S'sub-0025889_ses-2_dwi_desikan.gpickle'
p158
a(lp159
F0.5158371040723982
aF0.7980295566502463
aF0.7310344827586207
aF0.6666666666666666
aF0.5809435707678076
aF0.6794871794871795
aF0.6320346320346321
aF0.7247311827956989
aF0.8421052631578947
aF0.7247311827956989
aF0.6344238975817923
aF0.6333333333333333
aF0.7065527065527065
aF0.5285714285714286
aF0.5789473684210527
aF0.811965811965812
aF0.7376344086021506
aF0.7954022988505747
aF0.8972332015810277
aF0.9473684210526315
aF0.9473684210526315
aF0.6666666666666666
aF0.8152709359605911
aF0.6761133603238867
aF0.6422764227642277
aF0.6840336134453782
aF0.8166666666666667
aF0.81
aF0.5679442508710801
aF0.6923076923076923
aF0.7338709677419355
aF0.84
aF0.7333333333333333
aF0.6388888888888888
aF0.94
aF0.4844155844155844
aF0.8666666666666667
aF0.7053763440860215
aF0.5309803921568628
aF0.5333333333333333
aF0.75
aF0.5985221674876847
aF0.7318840579710145
aF0.8
aF0.7066666666666667
aF0.5333333333333333
aF0.6
aF0.5876923076923077
aF0.5367647058823529
aF0.5670995670995671
aF0.7786561264822134
aF0.6695156695156695
aF0.6606606606606606
aF0.7619047619047619
aF1.0
aF0.8666666666666667
aF0.6410256410256411
aF0.7378917378917379
aF0.6705882352941176
aF0.5459183673469388
aF0.5290148448043185
aF0.8428571428571429
aF0.7777777777777778
aF0.49709724238026126
aF0.696969696969697
aF0.819047619047619
aF0.7218390804597701
aF0.7333333333333333
aF0.7222222222222222
aF0.9714285714285714
aaa(lp160
S'sub-0025890_ses-1_dwi_desikan.gpickle'
p161
a(lp162
F0.5137346580946814
aF0.8588709677419355
aF0.83
aF0.6282828282828283
aF0.6047058823529412
aF0.6593406593406593
aF0.6631578947368421
aF0.7842741935483871
aF0.8238636363636364
aF0.761344537815126
aF0.6280193236714976
aF0.6798418972332015
aF0.6353276353276354
aF0.6936936936936937
aF0.6406926406926406
aF0.8150537634408602
aF0.75
aF0.7512820512820513
aF0.857707509881423
aF0.8928571428571429
aF0.9005847953216374
aF0.9696969696969697
aF0.7503373819163293
aF0.6356382978723404
aF0.6515151515151515
aF0.655592469545958
aF0.7275132275132276
aF0.7766666666666666
aF0.552156862745098
aF0.773015873015873
aF0.7914438502673797
aF0.8467023172905526
aF0.8214285714285714
aF0.7142857142857143
aF0.9415384615384615
aF0.5073446327683616
aF0.7314439946018894
aF0.84
aF0.6904761904761905
aF0.5375939849624061
aF0.7777777777777778
aF0.6
aF0.728735632183908
aF0.8005698005698005
aF0.7865612648221344
aF0.6262719703977798
aF0.7575757575757576
aF0.6984126984126984
aF0.6896551724137931
aF0.6753246753246753
aF0.8311688311688312
aF0.7015384615384616
aF0.7073170731707317
aF0.8695652173913043
aF0.8055555555555556
aF0.7789855072463768
aF0.783625730994152
aF0.8142292490118577
aF0.6073469387755102
aF0.6734143049932524
aF0.5790816326530612
aF0.7633333333333333
aF0.7339901477832512
aF0.6079734219269103
aF0.7243697478991596
aF0.6606606606606606
aF0.7260458839406208
aF0.7777777777777778
aF0.8
aF0.9411764705882353
aaa(lp163
S'sub-0025890_ses-2_dwi_desikan.gpickle'
p164
a(lp165
F0.5288207297726071
aF0.8036984352773826
aF0.8774928774928775
aF0.6659619450317125
aF0.5895989974937343
aF0.6545454545454545
aF0.5833333333333334
aF0.7563025210084033
aF0.8433048433048433
aF0.7182926829268292
aF0.6353658536585366
aF0.7316017316017316
aF0.6552706552706553
aF0.7057471264367816
aF0.5757575757575758
aF0.8484848484848485
aF0.7548387096774194
aF0.741014799154334
aF0.828042328042328
aF0.8571428571428571
aF0.8695652173913043
aF0.7142857142857143
aF0.748780487804878
aF0.6012987012987013
aF0.6513605442176871
aF0.6742532005689901
aF0.7724137931034483
aF0.7487684729064039
aF0.6125603864734299
aF0.7556818181818182
aF0.7219512195121951
aF0.8003003003003003
aF0.8
aF0.6111111111111112
aF0.8036984352773826
aF0.5440677966101695
aF0.9204301075268817
aF0.9456521739130435
aF0.7294117647058823
aF0.572897761645493
aF0.6515151515151515
aF0.6766666666666666
aF0.7492492492492493
aF0.8790322580645161
aF0.8110516934046346
aF0.6560283687943262
aF0.7555555555555555
aF0.7133333333333334
aF0.7142857142857143
aF0.6052631578947368
aF0.8484848484848485
aF0.7548387096774194
aF0.7375415282392026
aF0.8461538461538461
aF1.0
aF0.8153846153846154
aF0.8596059113300493
aF0.7183499288762447
aF0.6357466063348416
aF0.6357466063348416
aF0.6149019607843137
aF0.7720430107526882
aF0.8153846153846154
aF0.651219512195122
aF0.8111111111111111
aF0.8461538461538461
aF0.8627450980392157
aF0.7121212121212122
aF0.7121212121212122
aF0.9391534391534392
aaa(lp166
S'sub-0025891_ses-1_dwi_desikan.gpickle'
p167
a(lp168
F0.5002644103648863
aF0.810752688172043
aF0.7698924731182796
aF0.6511627906976745
aF0.5172413793103449
aF1.0
aF0.7101449275362319
aF0.6842105263157895
aF0.8666666666666667
aF0.7272727272727273
aF0.5991902834008097
aF0.8263157894736842
aF0.5969230769230769
aF0.6354679802955665
aF0.5533596837944664
aF0.8379446640316206
aF0.7827956989247312
aF0.6409574468085106
aF0.8174603174603174
aF1.0
aF0.8666666666666667
aF0.9545454545454546
aF0.7537537537537538
aF0.6241496598639455
aF0.5892597968069666
aF0.6747638326585695
aF0.7894736842105263
aF0.7353846153846154
aF0.635846372688478
aF0.8354978354978355
aF0.7237237237237237
aF0.7746212121212122
aF0.8571428571428571
aF0.6545454545454545
aF0.8735177865612648
aF0.543233082706767
aF0.7581792318634424
aF0.8042328042328042
aF0.7012195121951219
aF0.5761973875181422
aF1.0
aF0.6231884057971014
aF0.6882591093117408
aF0.8571428571428571
aF0.8045977011494253
aF0.6081632653061224
aF0.9076923076923077
aF0.6061538461538462
aF0.645021645021645
aF0.5466666666666666
aF0.8544973544973545
aF0.70267131242741
aF0.7448717948717949
aF0.8478260869565217
aF0.7619047619047619
aF0.8484848484848485
aF0.91
aF0.8286290322580645
aF0.6695652173913044
aF0.6646464646464646
aF0.6411149825783972
aF0.7876923076923077
aF0.7905138339920948
aF0.5961538461538461
aF0.7714285714285715
aF0.7763440860215054
aF0.7611336032388664
aF0.7857142857142857
aF0.8
aF0.9692307692307692
aaa(lp169
S'sub-0025891_ses-2_dwi_desikan.gpickle'
p170
a(lp171
F0.5045197740112994
aF0.9238095238095239
aF0.803076923076923
aF0.645877378435518
aF0.5166569257744009
aF1.0
aF0.6731182795698925
aF0.7549857549857549
aF0.8857142857142857
aF0.7753846153846153
aF0.5841463414634146
aF0.8947368421052632
aF0.6277056277056277
aF0.6837606837606838
aF0.5688405797101449
aF0.8133333333333334
aF0.7397504456327986
aF0.6327474560592045
aF0.7907692307692308
aF1.0
aF0.8161764705882353
aF0.8484848484848485
aF0.6782810685249709
aF0.5747460087082729
aF0.6
aF0.6647727272727273
aF0.7705627705627706
aF0.6873563218390805
aF0.6444444444444445
aF0.7016129032258065
aF0.7329545454545454
aF0.7176470588235294
aF0.8214285714285714
aF0.6545454545454545
aF0.9578947368421052
aF0.5067212156633548
aF0.803921568627451
aF0.82
aF0.7126600284495022
aF0.5874509803921568
aF0.8214285714285714
aF0.6926406926406926
aF0.7840909090909091
aF0.8181818181818182
aF0.874384236453202
aF0.6292929292929293
aF0.9266666666666666
aF0.6088709677419355
aF0.7783251231527094
aF0.5507246376811594
aF0.871264367816092
aF0.7412698412698413
aF0.723170731707317
aF0.83399209486166
aF0.8214285714285714
aF0.8169934640522876
aF0.9266666666666666
aF0.7859848484848485
aF0.6828752642706131
aF0.6541062801932367
aF0.6226215644820295
aF0.7285714285714285
aF0.7047619047619048
aF0.6171171171171171
aF0.8689458689458689
aF0.7701612903225806
aF0.7624466571834992
aF0.7857142857142857
aF0.7424242424242424
aF0.9661538461538461
aaa(lp172
S'sub-0025892_ses-1_dwi_desikan.gpickle'
p173
a(lp174
F0.6231638418079096
aF0.8549280177187154
aF0.7285714285714285
aF0.7536997885835095
aF0.614207650273224
aF0.8214285714285714
aF0.7268817204301076
aF0.8118393234672304
aF0.8666666666666667
aF0.8097251585623678
aF0.6787878787878788
aF0.865546218487395
aF0.6827586206896552
aF0.8918918918918919
aF0.6017316017316018
aF0.8110661268556005
aF0.7923076923076923
aF0.8914634146341464
aF0.8514492753623188
aF0.6666666666666666
aF0.8571428571428571
aF0.7320261437908496
aF0.8634920634920635
aF0.769795918367347
aF0.7273469387755102
aF0.7379591836734694
aF0.7692307692307693
aF0.73
aF0.6417797888386124
aF0.8487179487179487
aF0.7074509803921568
aF0.9
aF0.8095238095238095
aF0.7142857142857143
aF0.9288762446657184
aF0.6120218579234973
aF0.8737541528239202
aF0.7243697478991596
aF0.7153846153846154
aF0.6125683060109289
aF0.7802197802197802
aF0.8233333333333334
aF0.7893719806763285
aF0.8383167220376523
aF0.8134146341463414
aF0.6626262626262627
aF0.8403361344537815
aF0.7427536231884058
aF0.8317460317460318
aF0.645021645021645
aF0.8321479374110953
aF0.8714285714285714
aF0.81256038647343
aF0.7770114942528735
aF0.9047619047619048
aF0.8736842105263158
aF0.8351648351648352
aF0.7434343434343434
aF0.8049645390070922
aF0.6578947368421053
aF0.6530920060331825
aF0.8658008658008658
aF0.7971014492753623
aF0.6182873730043541
aF0.8383167220376523
aF0.7463002114164905
aF0.8096618357487922
aF0.7619047619047619
aF0.6909090909090909
aF0.9470899470899471
aaa(lp175
S'sub-0025892_ses-2_dwi_desikan.gpickle'
p176
a(lp177
F0.5857654889912954
aF0.8393234672304439
aF0.7529411764705882
aF0.7663344407530454
aF0.6430732002419842
aF0.8181818181818182
aF0.7149425287356321
aF0.7333333333333333
aF0.8623481781376519
aF0.7453061224489796
aF0.6729411764705883
aF0.8243589743589743
aF0.6330049261083743
aF0.7740863787375415
aF0.5982905982905983
aF0.8372093023255814
aF0.7346938775510204
aF0.8585365853658536
aF0.7763440860215054
aF0.8571428571428571
aF0.8701298701298701
aF0.7720588235294118
aF0.9019607843137255
aF0.7285067873303167
aF0.7796234772978959
aF0.7984496124031008
aF0.7433862433862434
aF0.8268398268398268
aF0.7468060394889663
aF0.8327526132404182
aF0.7021116138763197
aF0.8606271777003485
aF0.8333333333333334
aF0.7777777777777778
aF0.8057354301572618
aF0.6012691697514543
aF0.8730769230769231
aF0.75
aF0.7317073170731707
aF0.6220338983050847
aF0.8222222222222222
aF0.7761904761904762
aF0.7932636469221835
aF0.8426829268292683
aF0.8320512820512821
aF0.6932215234102026
aF0.8205128205128205
aF0.6752136752136753
aF0.8466666666666667
aF0.6190476190476191
aF0.8502673796791443
aF0.8392603129445235
aF0.8393939393939394
aF0.7677419354838709
aF0.8681318681318682
aF0.847953216374269
aF0.8459770114942529
aF0.7142857142857143
aF0.81256038647343
aF0.6701298701298701
aF0.6127946127946128
aF0.8102766798418972
aF0.8070175438596491
aF0.6318027210884354
aF0.8256410256410256
aF0.7821969696969697
aF0.7097242380261248
aF0.8095238095238095
aF0.7777777777777778
aF0.9544159544159544
aaa(lp178
S'sub-0025893_ses-1_dwi_desikan.gpickle'
p179
a(lp180
F0.5422077922077922
aF0.8795698924731182
aF0.849802371541502
aF0.6682926829268293
aF0.5822021116138764
aF0.7454545454545455
aF0.7421052631578947
aF0.7540106951871658
aF0.8666666666666667
aF0.8225806451612904
aF0.6216466234967623
aF0.7537878787878788
aF0.6623655913978495
aF0.6543385490753911
aF0.67
aF0.8551724137931035
aF0.8103448275862069
aF0.761344537815126
aF0.8701298701298701
aF0.8441558441558441
aF0.792022792022792
aF0.695906432748538
aF0.7963709677419355
aF0.6689895470383276
aF0.7402402402402403
aF0.6329849012775842
aF0.8148148148148148
aF0.7660098522167488
aF0.6726726726726727
aF0.7950089126559715
aF0.6788124156545209
aF0.8795698924731182
aF0.9047619047619048
aF0.6444444444444445
aF0.8387096774193549
aF0.5021857923497268
aF0.7272727272727273
aF0.8092307692307692
aF0.6417112299465241
aF0.5201636469900643
aF0.6818181818181818
aF0.6066666666666667
aF0.6989247311827957
aF0.8616600790513834
aF0.8917748917748918
aF0.5337662337662338
aF0.7572463768115942
aF0.639080459770115
aF0.7094017094017094
aF0.5982905982905983
aF0.9
aF0.6655052264808362
aF0.621256038647343
aF0.8713450292397661
aF0.9047619047619048
aF0.8128654970760234
aF0.7509881422924901
aF0.6216216216216216
aF0.5818181818181818
aF0.5670588235294117
aF0.5782051282051283
aF0.7733333333333333
aF0.7103448275862069
aF0.6577540106951871
aF0.8616600790513834
aF0.6919540229885057
aF0.7183600713012478
aF0.9047619047619048
aF0.8444444444444444
aF1.0
aaa(lp181
S'sub-0025893_ses-2_dwi_desikan.gpickle'
p182
a(lp183
F0.5114754098360655
aF0.8288770053475936
aF0.8068783068783069
aF0.6987179487179487
aF0.5744234800838575
aF0.7272727272727273
aF0.6584615384615384
aF0.7402402402402403
aF0.8074866310160428
aF0.7915966386554621
aF0.6170212765957447
aF0.7285714285714285
aF0.6931216931216931
aF0.6444444444444445
aF0.6492307692307693
aF0.9015384615384615
aF0.82
aF0.7736185383244206
aF0.9004329004329005
aF0.8004926108374384
aF0.8347578347578347
aF0.7
aF0.750445632798574
aF0.7357357357357357
aF0.7207207207207207
aF0.6019323671497585
aF0.8114942528735632
aF0.7832512315270936
aF0.7159663865546219
aF0.7915966386554621
aF0.7197724039829303
aF0.8617424242424242
aF0.9285714285714286
aF0.6888888888888889
aF0.7968253968253968
aF0.511369645690111
aF0.7651515151515151
aF0.8233618233618234
aF0.6931818181818182
aF0.5737246680642907
aF0.7636363636363637
aF0.6153846153846154
aF0.7606837606837606
aF0.7142857142857143
aF0.8441558441558441
aF0.5739064856711915
aF0.7264957264957265
aF0.6620689655172414
aF0.6521739130434783
aF0.6239316239316239
aF0.8441558441558441
aF0.6856330014224751
aF0.6525252525252525
aF0.7578347578347578
aF0.9523809523809523
aF0.8583333333333333
aF0.7157894736842105
aF0.6356589147286822
aF0.6591591591591591
aF0.56743535988819
aF0.5416666666666666
aF0.8
aF0.7264957264957265
aF0.6714285714285714
aF0.7142857142857143
aF0.8043478260869565
aF0.7611408199643493
aF0.9523809523809523
aF0.7333333333333333
aF1.0
aaa(lp184
S'sub-0025894_ses-1_dwi_desikan.gpickle'
p185
a(lp186
F0.5178197064989518
aF0.9736842105263158
aF0.8703703703703703
aF0.6730769230769231
aF0.556734693877551
aF0.6
aF0.6430769230769231
aF0.7350427350427351
aF0.9095238095238095
aF0.8333333333333334
aF0.5991902834008097
aF0.9095238095238095
aF0.6482758620689655
aF0.7233333333333334
aF0.5846153846153846
aF0.9019607843137255
aF0.696551724137931
aF0.6090808416389811
aF0.7933333333333333
aF0.7333333333333333
aF0.8537549407114624
aF0.7142857142857143
aF0.717741935483871
aF0.5790934320074006
aF0.6134146341463415
aF0.6761363636363636
aF0.7486772486772487
aF0.7533333333333333
aF0.6856330014224751
aF0.8
aF0.7037037037037037
aF0.7494252873563219
aF0.9166666666666666
aF0.6181818181818182
aF0.8623188405797102
aF0.5124579124579125
aF0.8188405797101449
aF0.8423645320197044
aF0.7478991596638656
aF0.5616326530612245
aF0.7142857142857143
aF0.6287878787878788
aF0.7971014492753623
aF0.8181818181818182
aF0.8441558441558441
aF0.5555555555555556
aF0.7193675889328063
aF0.6992753623188406
aF0.677536231884058
aF0.6609686609686609
aF0.934640522875817
aF0.6085946573751452
aF0.6785206258890469
aF0.7885057471264367
aF0.8681318681318682
aF0.7782258064516129
aF0.6727272727272727
aF0.7379032258064516
aF0.7027027027027027
aF0.6067632850241546
aF0.584717607973422
aF0.7746212121212122
aF0.7327731092436974
aF0.7327731092436974
aF0.7264957264957265
aF0.6984126984126984
aF0.6747638326585695
aF0.9166666666666666
aF0.7582417582417582
aF0.9926470588235294
aaa(lp187
S'sub-0025894_ses-2_dwi_desikan.gpickle'
p188
a(lp189
F0.5057471264367817
aF0.873015873015873
aF0.7666666666666667
aF0.6231707317073171
aF0.5478955007256894
aF0.6666666666666666
aF0.6766666666666666
aF0.7327731092436974
aF0.8206896551724138
aF0.8114942528735632
aF0.650472334682861
aF0.8473684210526315
aF0.5846153846153846
aF0.7741935483870968
aF0.6047430830039525
aF0.8602941176470589
aF0.7492063492063492
aF0.5918367346938775
aF0.819047619047619
aF0.7333333333333333
aF0.8333333333333334
aF0.7154150197628458
aF0.8276923076923077
aF0.5782312925170068
aF0.6236786469344608
aF0.6825396825396826
aF0.6857142857142857
aF0.6467236467236467
aF0.5869324473975637
aF0.8275862068965517
aF0.6857142857142857
aF0.810752688172043
aF0.8611111111111112
aF0.7222222222222222
aF0.9416666666666667
aF0.5279220779220779
aF0.8472906403940886
aF0.8774703557312253
aF0.7358870967741935
aF0.5648567119155354
aF0.75
aF0.7210144927536232
aF0.7140151515151515
aF0.8333333333333334
aF0.8380952380952381
aF0.5714285714285714
aF0.7063492063492064
aF0.5942028985507246
aF0.7264367816091954
aF0.6233333333333333
aF0.8947368421052632
aF0.7277310924369748
aF0.6853658536585366
aF0.8033333333333333
aF1.0
aF0.7904761904761904
aF0.7272727272727273
aF0.7862903225806451
aF0.7153846153846154
aF0.5893877551020408
aF0.611336032388664
aF0.7186147186147186
aF0.6798029556650246
aF0.6862745098039216
aF0.6966966966966966
aF0.7518939393939394
aF0.6585623678646935
aF0.8444444444444444
aF0.7777777777777778
aF0.9934640522875817
aaa(lp190
S'sub-0025895_ses-1_dwi_desikan.gpickle'
p191
a(lp192
F0.48579234972677593
aF0.7717391304347826
aF0.8842364532019704
aF0.555878084179971
aF0.5305194805194805
aF0.7435897435897436
aF0.5842105263157895
aF0.7169230769230769
aF0.8571428571428571
aF0.7169230769230769
aF0.5846372688477952
aF0.7095238095238096
aF0.7575757575757576
aF0.5889328063241107
aF0.7367424242424242
aF0.8225108225108225
aF0.6923076923076923
aF0.6456456456456456
aF0.7849462365591398
aF0.9433333333333334
aF0.9846153846153847
aF0.6666666666666666
aF0.9052631578947369
aF0.5500725689404935
aF0.548621190130624
aF0.5793650793650794
aF0.8666666666666667
aF0.8888888888888888
aF0.5654901960784313
aF0.7292307692307692
aF0.6931216931216931
aF0.9047619047619048
aF0.6
aF0.6785714285714286
aF0.8528138528138528
aF0.5380852550663872
aF0.7178030303030303
aF0.9153439153439153
aF0.7170731707317073
aF0.6839323467230444
aF0.6538461538461539
aF0.6640316205533597
aF0.6818181818181818
aF0.7832512315270936
aF0.7793103448275862
aF0.6685633001422475
aF0.6029411764705882
aF0.7253968253968254
aF0.5555555555555556
aF0.6324110671936759
aF0.8078817733990148
aF0.6602150537634408
aF0.8413793103448276
aF0.8505747126436781
aF0.9384057971014492
aF0.9487179487179487
aF0.803030303030303
aF0.8238095238095238
aF0.6943521594684385
aF0.6921373200442967
aF0.5969802555168409
aF0.8205645161290323
aF0.8768472906403941
aF0.6755260243632336
aF0.7301587301587301
aF0.8325123152709359
aF0.9046153846153846
aF0.6666666666666666
aF0.8055555555555556
aF0.9492753623188406
aaa(lp193
S'sub-0025895_ses-2_dwi_desikan.gpickle'
p194
a(lp195
F0.5143191116306254
aF0.7158730158730159
aF0.9292307692307692
aF0.592687074829932
aF0.5474025974025974
aF0.803030303030303
aF0.675
aF0.8142292490118577
aF0.919047619047619
aF0.78
aF0.6396761133603239
aF0.7509881422924901
aF0.740530303030303
aF0.5978835978835979
aF0.6344827586206897
aF0.8714285714285714
aF0.696969696969697
aF0.812807881773399
aF0.8746438746438746
aF0.9437229437229437
aF0.9466666666666667
aF0.7523809523809524
aF0.7069701280227596
aF0.5886524822695035
aF0.5779591836734694
aF0.635846372688478
aF0.8436781609195402
aF0.8861538461538462
aF0.6486486486486487
aF0.7630769230769231
aF0.6306620209059234
aF0.7297297297297297
aF0.7619047619047619
aF0.6428571428571429
aF0.7771836007130125
aF0.5286195286195287
aF0.8068965517241379
aF0.8945868945868946
aF0.6728307254623044
aF0.6181972789115646
aF0.6212121212121212
aF0.7186147186147186
aF0.678030303030303
aF0.7832512315270936
aF0.7083333333333334
aF0.6292682926829268
aF0.6
aF0.7248677248677249
aF0.6095238095238096
aF0.5942028985507246
aF0.7807881773399015
aF0.7046153846153846
aF0.753968253968254
aF0.8359788359788359
aF0.8484848484848485
aF0.894927536231884
aF0.8636363636363636
aF0.7883597883597884
aF0.6147959183673469
aF0.6028911564625851
aF0.5666666666666667
aF0.7793103448275862
aF0.8307692307692308
aF0.5537010159651669
aF0.7290322580645161
aF0.7885057471264367
aF0.9031339031339032
aF0.7777777777777778
aF0.7111111111111111
aF0.9560439560439561
aaa(lp196
S'sub-0025896_ses-1_dwi_desikan.gpickle'
p197
a(lp198
F0.5276836158192091
aF0.8146167557932263
aF0.8369565217391305
aF0.6078431372549019
aF0.5800139762403913
aF0.7272727272727273
aF0.719047619047619
aF0.7635467980295566
aF0.843915343915344
aF0.7523809523809524
aF0.645760743321719
aF0.6455026455026455
aF0.7107692307692308
aF0.7142857142857143
aF0.6947368421052632
aF0.8106060606060606
aF0.7142857142857143
aF0.8238095238095238
aF0.7933333333333333
aF0.9411764705882353
aF1.0
aF0.8717948717948718
aF0.7983870967741935
aF0.6763285024154589
aF0.6989898989898989
aF0.7394957983193278
aF0.8152173913043478
aF0.7487684729064039
aF0.56966618287373
aF0.7899159663865546
aF0.7657657657657657
aF0.8861538461538462
aF0.8571428571428571
aF0.6785714285714286
aF0.8377896613190731
aF0.5
aF0.7914438502673797
aF0.8123076923076923
aF0.5918367346938775
aF0.5545112781954887
aF0.6666666666666666
aF0.7158730158730159
aF0.7237903225806451
aF0.780241935483871
aF0.8152173913043478
aF0.5786163522012578
aF0.680952380952381
aF0.6733333333333333
aF0.6926406926406926
aF0.6719367588932806
aF0.8181818181818182
aF0.7923387096774194
aF0.7462462462462462
aF0.7635327635327636
aF0.9111111111111111
aF0.8138528138528138
aF0.825
aF0.9138461538461539
aF0.6772946859903382
aF0.6714975845410628
aF0.5859929078014184
aF0.7661538461538462
aF0.7566137566137566
aF0.5898039215686275
aF0.7397849462365591
aF0.6991596638655462
aF0.8236559139784946
aF0.8131868131868132
aF0.75
aF0.7903225806451613
aaa(lp199
S'sub-0025896_ses-2_dwi_desikan.gpickle'
p200
a(lp201
F0.5097643097643098
aF0.7415329768270945
aF0.8297101449275363
aF0.5942028985507246
aF0.5345911949685535
aF0.6666666666666666
aF0.698005698005698
aF0.7315270935960592
aF0.8537549407114624
aF0.7254901960784313
aF0.635846372688478
aF0.6702898550724637
aF0.6210826210826211
aF0.6324110671936759
aF0.6368421052631579
aF0.780241935483871
aF0.8022988505747126
aF0.7771836007130125
aF0.7898550724637681
aF0.8928571428571429
aF0.8916666666666667
aF0.6857142857142857
aF0.7361853832442068
aF0.5851063829787234
aF0.6504065040650406
aF0.6571969696969697
aF0.7368421052631579
aF0.7543859649122807
aF0.5510204081632653
aF0.7620967741935484
aF0.6793650793650794
aF0.8953846153846153
aF0.7333333333333333
aF0.6388888888888888
aF0.8236559139784946
aF0.46775956284153003
aF0.6974789915966386
aF0.8266666666666667
aF0.6116642958748222
aF0.5025974025974026
aF0.696969696969697
aF0.6133004926108374
aF0.6798029556650246
aF0.7733333333333333
aF0.7835497835497836
aF0.5461224489795918
aF0.6904761904761905
aF0.6433333333333333
aF0.6333333333333333
aF0.5928853754940712
aF0.8285714285714286
aF0.7130124777183601
aF0.6770981507823614
aF0.7192118226600985
aF1.0
aF0.8023715415019763
aF0.7368421052631579
aF0.7777777777777778
aF0.680161943319838
aF0.6080808080808081
aF0.5232558139534884
aF0.7236467236467237
aF0.7971014492753623
aF0.6246246246246246
aF0.7323076923076923
aF0.64
aF0.7433862433862434
aF0.7692307692307693
aF0.7878787878787878
aF0.8033333333333333
aaa(lp202
S'sub-0025897_ses-1_dwi_desikan.gpickle'
p203
a(lp204
F0.4882154882154882
aF0.7816091954022989
aF0.8033333333333333
aF0.6698412698412698
aF0.5050798258345428
aF0.6783625730994152
aF0.5866666666666667
aF0.6064102564102564
aF0.8658008658008658
aF0.7237903225806451
aF0.615931721194879
aF0.7285714285714285
aF0.6285714285714286
aF0.6060606060606061
aF0.5842105263157895
aF0.8297101449275363
aF0.655241935483871
aF0.6888888888888889
aF0.7323076923076923
aF0.8611111111111112
aF0.8571428571428571
aF0.7472527472527473
aF0.8707692307692307
aF0.6531713900134952
aF0.7025210084033613
aF0.6742424242424242
aF0.7581699346405228
aF0.6984615384615385
aF0.5890243902439024
aF0.6921182266009852
aF0.6366366366366366
aF0.7906403940886699
aF1.0
aF0.7222222222222222
aF0.8153846153846154
aF0.4399788471708091
aF0.7103448275862069
aF0.7938461538461539
aF0.6524064171122995
aF0.48705882352941177
aF0.6666666666666666
aF0.6633333333333333
aF0.6738461538461539
aF0.9005847953216374
aF0.8285714285714286
aF0.4991496598639456
aF0.7666666666666667
aF0.6324110671936759
aF0.593103448275862
aF0.5800865800865801
aF0.8095238095238095
aF0.7063492063492064
aF0.6571428571428571
aF0.7333333333333333
aF0.7555555555555555
aF0.7965367965367965
aF0.7712418300653595
aF0.7353846153846154
aF0.6288798920377868
aF0.5623188405797102
aF0.5195121951219512
aF0.7350427350427351
aF0.7333333333333333
aF0.6352941176470588
aF0.7944664031620553
aF0.5985221674876847
aF0.6336336336336337
aF0.9
aF0.8
aF0.869281045751634
aaa(lp205
S'sub-0025897_ses-2_dwi_desikan.gpickle'
p206
a(lp207
F0.4767676767676768
aF0.8091954022988506
aF0.6566666666666666
aF0.6862745098039216
aF0.5328014184397163
aF0.7166666666666667
aF0.5563025210084034
aF0.7075630252100841
aF0.8338461538461538
aF0.7620967741935484
aF0.6301564722617354
aF0.7075098814229249
aF0.6536796536796536
aF0.6279569892473118
aF0.5714285714285714
aF0.8616600790513834
aF0.631578947368421
aF0.692063492063492
aF0.7137681159420289
aF0.8787878787878788
aF0.9120879120879121
aF0.7912087912087912
aF0.8413793103448276
aF0.7379032258064516
aF0.7575757575757576
aF0.665079365079365
aF0.7777777777777778
aF0.7251461988304093
aF0.5870445344129555
aF0.6172043010752688
aF0.7367424242424242
aF0.8492063492063492
aF0.8666666666666667
aF0.6515151515151515
aF0.7222222222222222
aF0.43898305084745765
aF0.7407407407407407
aF0.7229437229437229
aF0.6043010752688172
aF0.465166908563135
aF0.6666666666666666
aF0.61
aF0.6674876847290641
aF0.8181818181818182
aF0.8268398268398268
aF0.48265460030165913
aF0.7509881422924901
aF0.6233766233766234
aF0.6266666666666667
aF0.5466666666666666
aF0.7865612648221344
aF0.7366666666666667
aF0.6064102564102564
aF0.7083333333333334
aF0.9555555555555556
aF0.8380952380952381
aF0.670995670995671
aF0.8455882352941176
aF0.6045883940620783
aF0.5507399577167019
aF0.5465587044534413
aF0.7315789473684211
aF0.7516339869281046
aF0.5135135135135135
aF0.782608695652174
aF0.7028985507246377
aF0.6012820512820513
aF0.6666666666666666
aF0.7424242424242424
aF0.8285714285714286
aaa(lp208
S'sub-0025898_ses-1_dwi_desikan.gpickle'
p209
a(lp210
F0.5777777777777777
aF0.7414634146341463
aF0.7771836007130125
aF0.7015098722415796
aF0.6048265460030166
aF0.7368421052631579
aF0.6809116809116809
aF0.7354196301564723
aF0.8932806324110671
aF0.732051282051282
aF0.6242424242424243
aF0.7862318840579711
aF0.7264367816091954
aF0.6825396825396826
aF0.6476190476190476
aF0.821505376344086
aF0.7540322580645161
aF0.7102564102564103
aF0.7651515151515151
aF0.9333333333333333
aF0.857707509881423
aF0.9083333333333333
aF0.8703703703703703
aF0.7036585365853658
aF0.650709219858156
aF0.7807486631016043
aF0.798941798941799
aF0.7784615384615384
aF0.6328502415458938
aF0.8004032258064516
aF0.7131242740998839
aF0.8597701149425288
aF0.8095238095238095
aF0.6444444444444445
aF0.753968253968254
aF0.5283459964932787
aF0.7424242424242424
aF0.7587301587301587
aF0.6564482029598309
aF0.610105580693816
aF0.8636363636363636
aF0.6473118279569893
aF0.6336134453781512
aF0.7096774193548387
aF0.7878787878787878
aF0.5703918722786647
aF0.7272727272727273
aF0.7065217391304348
aF0.6581196581196581
aF0.5969230769230769
aF0.8
aF0.6731707317073171
aF0.6416490486257929
aF0.7386363636363636
aF1.0
aF0.8333333333333334
aF0.8205128205128205
aF0.6696696696696697
aF0.875268817204301
aF0.6008163265306122
aF0.5858843537414966
aF0.8276923076923077
aF0.7512315270935961
aF0.5957446808510638
aF0.7786561264822134
aF0.8225108225108225
aF0.6806039488966318
aF0.7333333333333333
aF0.7142857142857143
aF0.9044117647058824
aaa(lp211
S'sub-0025898_ses-2_dwi_desikan.gpickle'
p212
a(lp213
F0.5298701298701298
aF0.8514492753623188
aF0.8412698412698413
aF0.6557610241820768
aF0.5407239819004525
aF0.6813186813186813
aF0.6524216524216524
aF0.7354497354497355
aF0.849802371541502
aF0.7592592592592593
aF0.5452127659574468
aF0.7707509881422925
aF0.7167487684729064
aF0.6233333333333333
aF0.5579710144927537
aF0.8184615384615385
aF0.7948717948717948
aF0.658974358974359
aF0.8405797101449275
aF0.9047619047619048
aF0.8768115942028986
aF0.8095238095238095
aF0.7984189723320159
aF0.6120507399577167
aF0.6141649048625792
aF0.6256410256410256
aF0.774712643678161
aF0.7724867724867724
aF0.5794871794871795
aF0.7723076923076924
aF0.7891737891737892
aF0.6543385490753911
aF0.8611111111111112
aF0.6111111111111112
aF0.8804347826086957
aF0.5306397306397307
aF0.8387096774193549
aF0.8966666666666666
aF0.6585365853658537
aF0.6771196283391405
aF0.7692307692307693
aF0.6322751322751323
aF0.6614509246088194
aF0.7870967741935484
aF0.7481060606060606
aF0.553469387755102
aF0.73
aF0.6609686609686609
aF0.6529160739687055
aF0.6268115942028986
aF0.8744588744588745
aF0.626984126984127
aF0.7072072072072072
aF0.6615384615384615
aF1.0
aF0.8478260869565217
aF0.7904761904761904
aF0.692063492063492
aF0.7327327327327328
aF0.6133209990749307
aF0.6134146341463415
aF0.7936507936507936
aF0.7378917378917379
aF0.595137420718816
aF0.750445632798574
aF0.9047619047619048
aF0.8387096774193549
aF0.9047619047619048
aF0.6222222222222222
aF0.9883040935672515
aaa(lp214
S'sub-0025899_ses-1_dwi_desikan.gpickle'
p215
a(lp216
F0.5259887005649717
aF0.9202279202279202
aF0.9202279202279202
aF0.6086274509803922
aF0.5703703703703704
aF0.7857142857142857
aF0.7
aF0.7290552584670231
aF0.8537549407114624
aF0.8
aF0.6248548199767712
aF0.8047619047619048
aF0.717741935483871
aF0.66890756302521
aF0.7134502923976608
aF0.8184615384615385
aF0.7243697478991596
aF0.8717948717948718
aF0.7379679144385026
aF0.9567099567099567
aF0.8888888888888888
aF0.7121212121212122
aF0.8193548387096774
aF0.6164965986394558
aF0.6688815060908084
aF0.7415329768270945
aF0.780241935483871
aF0.8054187192118226
aF0.5573294629898403
aF0.7476923076923077
aF0.8064516129032258
aF0.8994708994708994
aF0.8
aF0.7051282051282052
aF0.9415384615384615
aF0.5254237288135594
aF0.8719211822660099
aF0.9202279202279202
aF0.5892597968069666
aF0.5551948051948052
aF0.5714285714285714
aF0.7353846153846154
aF0.7159090909090909
aF0.676923076923077
aF0.7885057471264367
aF0.5475113122171946
aF0.8210526315789474
aF0.6798418972332015
aF0.5916666666666667
aF0.6052631578947368
aF0.8347578347578347
aF0.7770114942528735
aF0.8004032258064516
aF0.9133333333333333
aF0.9
aF0.8876811594202898
aF0.8888888888888888
aF0.7977011494252874
aF0.6771196283391405
aF0.583508036338225
aF0.5951417004048583
aF0.7494252873563219
aF0.7793103448275862
aF0.5461038961038961
aF0.7448275862068966
aF0.8624338624338624
aF0.7269230769230769
aF0.6666666666666666
aF0.8222222222222222
aF0.9486166007905138
aaa(lp217
S'sub-0025899_ses-2_dwi_desikan.gpickle'
p218
a(lp219
F0.49322033898305084
aF0.8876811594202898
aF0.8226600985221675
aF0.56
aF0.5331168831168831
aF0.75
aF0.6789473684210526
aF0.7103448275862069
aF0.8379446640316206
aF0.753968253968254
aF0.5756097560975609
aF0.7912087912087912
aF0.656084656084656
aF0.6045977011494252
aF0.7132352941176471
aF0.7891737891737892
aF0.6693548387096774
aF0.8514492753623188
aF0.6838709677419355
aF0.9333333333333333
aF0.9307359307359307
aF0.8181818181818182
aF0.8260869565217391
aF0.5904255319148937
aF0.6761904761904762
aF0.6403361344537815
aF0.8062678062678063
aF0.7157258064516129
aF0.5425170068027211
aF0.7094017094017094
aF0.7339901477832512
aF0.9090909090909091
aF0.8
aF0.6666666666666666
aF0.9288537549407114
aF0.509090909090909
aF0.9107692307692308
aF0.8064516129032258
aF0.6644518272425249
aF0.5478955007256894
aF0.6666666666666666
aF0.6363636363636364
aF0.7471264367816092
aF0.7878787878787878
aF0.8333333333333334
aF0.5596669750231268
aF0.8369230769230769
aF0.7122507122507122
aF0.638095238095238
aF0.5631578947368421
aF0.88
aF0.647226173541963
aF0.6936507936507936
aF0.7529411764705882
aF0.9111111111111111
aF0.8633333333333333
aF0.8578947368421053
aF0.7720797720797721
aF0.6804878048780488
aF0.6437632135306554
aF0.6366366366366366
aF0.7698924731182796
aF0.7333333333333333
aF0.6178861788617886
aF0.7471264367816092
aF0.8465608465608465
aF0.7932263814616756
aF0.7333333333333333
aF0.8444444444444444
aF0.9571428571428572
aaa(lp220
S'sub-0025900_ses-1_dwi_desikan.gpickle'
p221
a(lp222
F0.5198307773664728
aF0.8544973544973545
aF0.7629233511586453
aF0.689922480620155
aF0.5565638233514821
aF0.6888888888888889
aF0.6798418972332015
aF0.7367424242424242
aF0.8842105263157894
aF0.7908045977011494
aF0.5957446808510638
aF0.7402597402597403
aF0.6988505747126437
aF0.6374269005847953
aF0.5757575757575758
aF0.8227513227513228
aF0.7612903225806451
aF0.717948717948718
aF0.7758620689655172
aF1.0
aF0.8514492753623188
aF0.7402597402597403
aF0.7158536585365853
aF0.6782810685249709
aF0.7237237237237237
aF0.5957446808510638
aF0.8091954022988506
aF0.7102272727272727
aF0.6190476190476191
aF0.6951219512195121
aF0.7721774193548387
aF0.7539118065433855
aF0.7
aF0.6888888888888889
aF0.916923076923077
aF0.5620300751879699
aF0.724390243902439
aF0.8229885057471265
aF0.7365079365079366
aF0.6015686274509804
aF0.6727272727272727
aF0.679144385026738
aF0.6454545454545455
aF0.8251231527093597
aF0.6991869918699187
aF0.6
aF0.7192118226600985
aF0.7217741935483871
aF0.6714285714285714
aF0.6413043478260869
aF0.7344028520499108
aF0.621256038647343
aF0.7496443812233285
aF0.8174603174603174
aF0.9619047619047619
aF0.9047619047619048
aF0.8241758241758241
aF0.7440860215053764
aF0.7553342816500711
aF0.6998892580287929
aF0.6364692218350755
aF0.82
aF0.8473684210526315
aF0.6692307692307692
aF0.8251231527093597
aF0.6686868686868687
aF0.8344086021505376
aF0.6
aF0.8727272727272727
aF0.7762096774193549
aaa(lp223
S'sub-0025900_ses-2_dwi_desikan.gpickle'
p224
a(lp225
F0.49338974087784243
aF0.8952380952380953
aF0.7885057471264367
aF0.6268498942917548
aF0.5344611528822055
aF0.7333333333333333
aF0.6883116883116883
aF0.7350427350427351
aF0.8736842105263158
aF0.8181818181818182
aF0.5874190564292322
aF0.7391304347826086
aF0.6746031746031746
aF0.6432748538011696
aF0.6608187134502924
aF0.7944664031620553
aF0.6995073891625616
aF0.6853658536585366
aF0.7777777777777778
aF1.0
aF0.8932806324110671
aF0.6736842105263158
aF0.6869095816464238
aF0.655592469545958
aF0.6426829268292683
aF0.6050505050505051
aF0.8376068376068376
aF0.7172413793103448
aF0.6121951219512195
aF0.6551282051282051
aF0.7866666666666666
aF0.6794871794871795
aF0.6
aF0.6181818181818182
aF0.9411764705882353
aF0.5149035651665692
aF0.7873015873015873
aF0.8707692307692307
aF0.7378151260504202
aF0.5945098039215686
aF0.6666666666666666
aF0.6551724137931034
aF0.6807692307692308
aF0.8413793103448276
aF0.8016806722689076
aF0.6404040404040404
aF0.7610837438423645
aF0.7438423645320197
aF0.7210144927536232
aF0.6526315789473685
aF0.8084677419354839
aF0.7555555555555555
aF0.7822822822822822
aF0.8333333333333334
aF0.9307359307359307
aF0.9761904761904762
aF0.8333333333333334
aF0.7237903225806451
aF0.7354196301564723
aF0.6666666666666666
aF0.6131313131313131
aF0.8461538461538461
aF0.8366666666666667
aF0.6445993031358885
aF0.843010752688172
aF0.8087121212121212
aF0.8608870967741935
aF0.6
aF0.8545454545454545
aF0.9444444444444444
aaa(lp226
S'sub-0025901_ses-1_dwi_desikan.gpickle'
p227
a(lp228
F0.4336329984135378
aF0.9285714285714286
aF0.7538461538461538
aF0.5984126984126984
aF0.4984917043740573
aF0.7564102564102564
aF0.6105263157894737
aF0.78
aF0.9285714285714286
aF0.841897233201581
aF0.499113475177305
aF0.7865612648221344
aF0.5433333333333333
aF0.656084656084656
aF0.5367965367965368
aF0.8947368421052632
aF0.6505747126436782
aF0.5937921727395412
aF0.7631578947368421
aF0.8363636363636363
aF0.8461538461538461
aF0.8789473684210526
aF0.6881720430107527
aF0.5565217391304348
aF0.5369978858350951
aF0.6516129032258065
aF0.7
aF0.6957671957671958
aF0.6117424242424242
aF0.7476923076923077
aF0.6923076923076923
aF0.7606837606837606
aF0.7619047619047619
aF0.7777777777777778
aF0.9428571428571428
aF0.5280612244897959
aF0.8201970443349754
aF0.9238095238095239
aF0.7159090909090909
aF0.5434397163120568
aF0.8222222222222222
aF0.6587301587301587
aF0.6684491978609626
aF0.8433048433048433
aF0.7724867724867724
aF0.5525252525252525
aF0.7266009852216748
aF0.580952380952381
aF0.6796536796536796
aF0.6209150326797386
aF0.8666666666666667
aF0.7494252873563219
aF0.6974789915966386
aF0.7272727272727273
aF0.8666666666666667
aF0.8105263157894737
aF0.9545454545454546
aF0.8689458689458689
aF0.6742532005689901
aF0.6626180836707153
aF0.5846372688477952
aF0.6825396825396826
aF0.7282608695652174
aF0.6733870967741935
aF0.7724867724867724
aF0.7463054187192119
aF0.9266666666666666
aF0.7142857142857143
aF0.8611111111111112
aF0.974025974025974
aaa(lp229
S'sub-0025901_ses-2_dwi_desikan.gpickle'
p230
a(lp231
F0.3995192307692308
aF0.9142857142857143
aF0.7138461538461538
aF0.625
aF0.45454545454545453
aF0.717948717948718
aF0.5661764705882353
aF0.7261538461538461
aF0.9142857142857143
aF0.8181818181818182
aF0.532051282051282
aF0.7666666666666667
aF0.5770750988142292
aF0.7138461538461538
aF0.5857142857142857
aF0.9005847953216374
aF0.639080459770115
aF0.6203208556149733
aF0.6533333333333333
aF0.9444444444444444
aF0.8484848484848485
aF0.9477124183006536
aF0.6580645161290323
aF0.5592469545957918
aF0.5832147937411095
aF0.621505376344086
aF0.7105263157894737
aF0.6933333333333334
aF0.6330645161290323
aF0.8260869565217391
aF0.7107692307692308
aF0.9238095238095239
aF0.9272727272727272
aF0.75
aF0.9532163742690059
aF0.5011764705882353
aF0.8201970443349754
aF0.8063241106719368
aF0.6631016042780749
aF0.5411655874190564
aF0.8681318681318682
aF0.7114624505928854
aF0.696969696969697
aF0.9094202898550725
aF0.86
aF0.5560253699788583
aF0.8092307692307692
aF0.6245059288537549
aF0.7037037037037037
aF0.6013071895424836
aF0.8533333333333334
aF0.7315270935960592
aF0.6358974358974359
aF0.8142857142857143
aF0.9636363636363636
aF0.8654970760233918
aF0.8571428571428571
aF0.774712643678161
aF0.6230769230769231
aF0.6182926829268293
aF0.5592469545957918
aF0.7380952380952381
aF0.7575757575757576
aF0.6126126126126126
aF0.8553846153846154
aF0.7536945812807881
aF0.8518518518518519
aF1.0
aF0.8444444444444444
aF0.9486166007905138
aaa(lp232
S'sub-0025902_ses-1_dwi_desikan.gpickle'
p233
a(lp234
F0.4924585218702866
aF0.86
aF0.7866666666666666
aF0.6366366366366366
aF0.5328014184397163
aF0.7802197802197802
aF0.6095238095238096
aF0.7413793103448276
aF0.922077922077922
aF0.7724867724867724
aF0.554968287526427
aF0.7549407114624506
aF0.6695156695156695
aF0.645320197044335
aF0.5533333333333333
aF0.8260869565217391
aF0.6130867709815079
aF0.6988636363636364
aF0.8210526315789474
aF0.8611111111111112
aF0.8070175438596491
aF0.8758169934640523
aF0.7777777777777778
aF0.6880570409982175
aF0.635846372688478
aF0.6439393939393939
aF0.782608695652174
aF0.7644927536231884
aF0.5264270613107822
aF0.8768115942028986
aF0.6988505747126437
aF0.8893280632411067
aF0.8928571428571429
aF0.75
aF0.9307359307359307
aF0.45194805194805193
aF0.7692307692307693
aF0.7549857549857549
aF0.6126126126126126
aF0.5323671497584541
aF0.6166666666666667
aF0.6142857142857143
aF0.7366666666666667
aF0.8809523809523809
aF0.8398268398268398
aF0.4991496598639456
aF0.7792207792207793
aF0.6324786324786325
aF0.6638176638176638
aF0.6233333333333333
aF0.861904761904762
aF0.5320056899004267
aF0.6453781512605042
aF0.7777777777777778
aF1.0
aF0.7904761904761904
aF0.9477124183006536
aF0.7719298245614035
aF0.6553030303030303
aF0.5609756097560976
aF0.5690690690690691
aF0.7333333333333333
aF0.6847826086956522
aF0.580952380952381
aF0.8744588744588745
aF0.6758620689655173
aF0.6896551724137931
aF0.8571428571428571
aF0.7121212121212122
aF0.954248366013072
aaa(lp235
S'sub-0025902_ses-2_dwi_desikan.gpickle'
p236
a(lp237
F0.44611528822055135
aF0.7907692307692308
aF0.7681159420289855
aF0.678030303030303
aF0.5623678646934461
aF0.8484848484848485
aF0.5736842105263158
aF0.6330645161290323
aF0.8904761904761904
aF0.7248677248677249
aF0.5415282392026578
aF0.8428571428571429
aF0.6552706552706553
aF0.6410256410256411
aF0.572463768115942
aF0.8023715415019763
aF0.573549257759784
aF0.7311827956989247
aF0.8529411764705882
aF1.0
aF0.8431372549019608
aF0.8461538461538461
aF0.7619047619047619
aF0.7076612903225806
aF0.6291291291291291
aF0.5551282051282052
aF0.7862318840579711
aF0.7261538461538461
aF0.6134453781512605
aF0.7666666666666667
aF0.7328042328042328
aF0.8571428571428571
aF0.8571428571428571
aF0.7777777777777778
aF0.9705882352941176
aF0.46540880503144655
aF0.8787878787878788
aF0.7566666666666667
aF0.5282392026578073
aF0.5373737373737374
aF0.6444444444444445
aF0.6340579710144928
aF0.6923076923076923
aF0.7984189723320159
aF0.7633333333333333
aF0.5042517006802721
aF0.8954248366013072
aF0.6527093596059114
aF0.6190476190476191
aF0.6338461538461538
aF0.8063241106719368
aF0.610752688172043
aF0.6452762923351159
aF0.8128654970760234
aF0.8214285714285714
aF0.7843137254901961
aF0.9
aF0.7867647058823529
aF0.7057471264367816
aF0.5443974630021141
aF0.5371794871794872
aF0.7292307692307692
aF0.7075098814229249
aF0.526829268292683
aF0.7984189723320159
aF0.6837606837606838
aF0.7446153846153846
aF0.7619047619047619
aF0.717948717948718
aF0.9084967320261438
aaa(lp238
S'sub-0025903_ses-1_dwi_desikan.gpickle'
p239
a(lp240
F0.5388661601402689
aF0.8893280632411067
aF0.8436781609195402
aF0.6342857142857142
aF0.5553539019963702
aF0.7802197802197802
aF0.7207977207977208
aF0.7379310344827587
aF0.8893280632411067
aF0.7684729064039408
aF0.6179463459759482
aF0.7509881422924901
aF0.6693548387096774
aF0.7323076923076923
aF0.5691699604743083
aF0.8210526315789474
aF0.7571428571428571
aF0.7158536585365853
aF0.8229885057471265
aF0.8095238095238095
aF0.8735177865612648
aF0.7279411764705882
aF0.7177177177177178
aF0.6577243293246994
aF0.6025641025641025
aF0.6480836236933798
aF0.7777777777777778
aF0.7863247863247863
aF0.5951020408163266
aF0.7613636363636364
aF0.6989247311827957
aF0.7613636363636364
aF0.7333333333333333
aF0.75
aF0.8660968660968661
aF0.5513784461152882
aF0.768270944741533
aF0.8436781609195402
aF0.75
aF0.5688311688311688
aF0.6923076923076923
aF0.7655172413793103
aF0.7147147147147147
aF0.7967914438502673
aF0.8042328042328042
aF0.6073469387755102
aF0.7207977207977208
aF0.6685633001422475
aF0.6926406926406926
aF0.695906432748538
aF0.84
aF0.7273954116059379
aF0.7268292682926829
aF0.8746438746438746
aF0.9523809523809523
aF0.8766666666666667
aF0.9411764705882353
aF0.7977207977207977
aF0.6881606765327696
aF0.6454081632653061
aF0.6437632135306554
aF0.791005291005291
aF0.7777777777777778
aF0.6244218316373727
aF0.7761904761904762
aF0.7467994310099573
aF0.8100840336134454
aF0.7333333333333333
aF0.7777777777777778
aF0.9653679653679653
aaa(lp241
S'sub-0025903_ses-2_dwi_desikan.gpickle'
p242
a(lp243
F0.514013749338974
aF0.8371212121212122
aF0.7862068965517242
aF0.6335034013605442
aF0.5389830508474577
aF0.8717948717948718
aF0.7063492063492064
aF0.7612612612612613
aF0.8371212121212122
aF0.7761904761904762
aF0.6515679442508711
aF0.7792207792207793
aF0.6
aF0.7587301587301587
aF0.5869565217391305
aF0.8333333333333334
aF0.8004032258064516
aF0.6966183574879227
aF0.8586956521739131
aF1.0
aF0.8596491228070176
aF0.8809523809523809
aF0.8084677419354839
aF0.6266666666666667
aF0.5986937590711175
aF0.7327731092436974
aF0.7466666666666667
aF0.7575757575757576
aF0.5604472396925227
aF0.8423645320197044
aF0.8033613445378152
aF0.8505747126436781
aF0.8
aF0.7222222222222222
aF0.9230769230769231
aF0.5452951490356517
aF0.8276515151515151
aF0.8262108262108262
aF0.6543340380549683
aF0.5517241379310345
aF0.8363636363636363
aF0.683982683982684
aF0.7512605042016807
aF0.8559139784946237
aF0.8300492610837439
aF0.5897435897435898
aF0.798941798941799
aF0.6822660098522167
aF0.7891737891737892
aF0.6842105263157895
aF0.8659420289855072
aF0.7414634146341463
aF0.7414634146341463
aF0.8333333333333334
aF0.9
aF0.841897233201581
aF0.9130434782608695
aF0.9166666666666666
aF0.6191553544494721
aF0.6547619047619048
aF0.5984313725490196
aF0.7876923076923077
aF0.7466666666666667
aF0.5903381642512078
aF0.7896613190730838
aF0.7897727272727273
aF0.8804597701149425
aF0.7619047619047619
aF0.7948717948717948
aF0.9762845849802372
aaa(lp244
S'sub-0025904_ses-1_dwi_desikan.gpickle'
p245
a(lp246
F0.571043771043771
aF0.9090909090909091
aF0.83
aF0.6691331923890064
aF0.6010558069381599
aF0.6
aF0.6613756613756614
aF0.7610241820768137
aF0.9153439153439153
aF0.8453781512605042
aF0.6710963455149501
aF0.8325123152709359
aF0.6430769230769231
aF0.7272727272727273
aF0.683982683982684
aF0.8627450980392157
aF0.8275862068965517
aF0.8008534850640113
aF0.7292307692307692
aF1.0
aF0.8789473684210526
aF0.8571428571428571
aF0.8484848484848485
aF0.7487179487179487
aF0.6628019323671498
aF0.8235294117647058
aF0.7433862433862434
aF0.7353846153846154
aF0.5833333333333334
aF0.8326612903225806
aF0.7912912912912913
aF0.8946236559139785
aF0.7857142857142857
aF0.6388888888888888
aF0.8770053475935828
aF0.5002560163850487
aF0.6770981507823614
aF0.8233333333333334
aF0.6333333333333333
aF0.5415584415584416
aF0.6785714285714286
aF0.6246153846153846
aF0.7753623188405797
aF0.8631578947368421
aF0.8354978354978355
aF0.5474747474747474
aF0.758893280632411
aF0.6850574712643678
aF0.6951566951566952
aF0.6926406926406926
aF0.8842105263157894
aF0.6730769230769231
aF0.6483091787439613
aF0.6856060606060606
aF0.8514492753623188
aF0.8616600790513834
aF0.7777777777777778
aF0.7248677248677249
aF0.6691331923890064
aF0.600177304964539
aF0.5420289855072464
aF0.8654970760233918
aF0.7569230769230769
aF0.5780141843971631
aF0.6984126984126984
aF0.7430830039525692
aF0.6575052854122622
aF0.8666666666666667
aF0.8181818181818182
aF0.8538011695906432
aaa(lp247
S'sub-0025904_ses-2_dwi_desikan.gpickle'
p248
a(lp249
F0.559322033898305
aF0.8761904761904762
aF0.8148148148148148
aF0.6755260243632336
aF0.6067340067340067
aF0.6666666666666666
aF0.7684210526315789
aF0.7766714082503556
aF0.8988505747126436
aF0.8063063063063063
aF0.6462585034013606
aF0.8548387096774194
aF0.6410256410256411
aF0.7630252100840336
aF0.6123076923076923
aF0.8093883357041252
aF0.8448275862068966
aF0.7780487804878049
aF0.676923076923077
aF0.8888888888888888
aF0.8952380952380953
aF0.7154150197628458
aF0.8352941176470589
aF0.700277520814061
aF0.6989898989898989
aF0.7305458768873403
aF0.7407407407407407
aF0.6825396825396826
aF0.5822021116138764
aF0.7857142857142857
aF0.7353658536585366
aF0.8078078078078078
aF0.8055555555555556
aF0.6545454545454545
aF0.9001782531194296
aF0.5356953992596509
aF0.7202020202020202
aF0.8405797101449275
aF0.6267995570321152
aF0.5563997662185857
aF0.75
aF0.6834677419354839
aF0.7447447447447447
aF0.7770114942528735
aF0.7546218487394958
aF0.6199095022624435
aF0.6934046345811051
aF0.6685606060606061
aF0.73
aF0.6403162055335968
aF0.8614718614718615
aF0.7610241820768137
aF0.7219873150105708
aF0.7876923076923077
aF0.8478260869565217
aF0.857707509881423
aF0.7526315789473684
aF0.8285714285714286
aF0.6641156462585034
aF0.6219607843137255
aF0.5735430157261795
aF0.7922077922077922
aF0.7569230769230769
aF0.5779591836734694
aF0.8333333333333334
aF0.7166085946573751
aF0.7111111111111111
aF0.8214285714285714
aF0.8545454545454545
aF0.9485294117647058
aaa(lp250
S'sub-0025905_ses-1_dwi_desikan.gpickle'
p251
a(lp252
F0.5303983228511531
aF0.8436781609195402
aF0.8205128205128205
aF0.6926829268292682
aF0.633816425120773
aF0.7222222222222222
aF0.6577540106951871
aF0.7613636363636364
aF0.968421052631579
aF0.7943548387096774
aF0.6450742240215924
aF0.7233201581027668
aF0.6921182266009852
aF0.7107692307692308
aF0.5666666666666667
aF0.8091168091168092
aF0.6913229018492176
aF0.8086021505376344
aF0.8466666666666667
aF1.0
aF0.8571428571428571
aF0.7952380952380952
aF0.6950067476383266
aF0.7697478991596639
aF0.6396135265700483
aF0.6756756756756757
aF0.7966666666666666
aF0.7934782608695652
aF0.6770981507823614
aF0.7443181818181818
aF0.7943548387096774
aF0.8571428571428571
aF0.6
aF0.75
aF0.8497536945812808
aF0.4827586206896552
aF0.6476190476190476
aF0.7832512315270936
aF0.6088794926004228
aF0.5437405731523378
aF0.6410256410256411
aF0.6557971014492754
aF0.7210144927536232
aF0.8138528138528138
aF0.7532467532467533
aF0.5404040404040404
aF0.670995670995671
aF0.6482213438735178
aF0.5751633986928104
aF0.6233766233766234
aF0.8713450292397661
aF0.5974358974358974
aF0.6512820512820513
aF0.7076612903225806
aF0.8611111111111112
aF0.7438423645320197
aF0.869281045751634
aF0.7142857142857143
aF0.7428571428571429
aF0.5498039215686275
aF0.5293466223698782
aF0.792022792022792
aF0.7661538461538462
aF0.5883441258094357
aF0.7107692307692308
aF0.6587301587301587
aF0.8441558441558441
aF0.6666666666666666
aF0.8222222222222222
aF0.9428571428571428
aaa(lp253
S'sub-0025905_ses-2_dwi_desikan.gpickle'
p254
a(lp255
F0.5050505050505051
aF0.9420289855072463
aF0.7540229885057471
aF0.7708333333333334
aF0.6048309178743961
aF0.6181818181818182
aF0.6401515151515151
aF0.7610837438423645
aF0.9238095238095239
aF0.8290598290598291
aF0.6353658536585366
aF0.7028985507246377
aF0.7118226600985221
aF0.7037037037037037
aF0.6527093596059114
aF0.8738461538461538
aF0.6429587482219061
aF0.8251231527093597
aF0.7876923076923077
aF1.0
aF0.8952380952380953
aF0.7454545454545455
aF0.7201426024955436
aF0.768270944741533
aF0.6794871794871795
aF0.6207827260458839
aF0.8233333333333334
aF0.7293447293447294
aF0.6245847176079734
aF0.6950757575757576
aF0.780241935483871
aF0.89
aF0.8571428571428571
aF0.6666666666666666
aF0.8738461538461538
aF0.46931618936294567
aF0.7533333333333333
aF0.7569892473118279
aF0.5174165457184325
aF0.5434397163120568
aF0.6515151515151515
aF0.7318840579710145
aF0.7391304347826086
aF0.7681159420289855
aF0.8380952380952381
aF0.5026595744680851
aF0.719047619047619
aF0.6761904761904762
aF0.6105263157894737
aF0.5691699604743083
aF0.8631578947368421
aF0.698005698005698
aF0.6301587301587301
aF0.6748768472906403
aF0.8571428571428571
aF0.8666666666666667
aF0.819047619047619
aF0.6252100840336134
aF0.7487684729064039
aF0.48621553884711777
aF0.5490753911806543
aF0.7786561264822134
aF0.7602339181286549
aF0.5575757575757576
aF0.7037037037037037
aF0.6953846153846154
aF0.7723076923076924
aF0.6785714285714286
aF0.8181818181818182
aF0.9560439560439561
aaa(lp256
S'sub-0025906_ses-1_dwi_desikan.gpickle'
p257
a(lp258
F0.4661076170510133
aF0.822463768115942
aF0.857707509881423
aF0.5719512195121951
aF0.48627450980392156
aF0.717948717948718
aF0.6928104575163399
aF0.7538461538461538
aF0.8666666666666667
aF0.7538461538461538
aF0.5506072874493927
aF0.7573529411764706
aF0.6353276353276354
aF0.75
aF0.6142857142857143
aF0.8079710144927537
aF0.6892307692307692
aF0.716931216931217
aF0.6699507389162561
aF1.0
aF0.8225108225108225
aF0.6703296703296703
aF0.7063492063492064
aF0.6238095238095238
aF0.5937921727395412
aF0.6471774193548387
aF0.7355072463768116
aF0.6748768472906403
aF0.5452091767881242
aF0.6894586894586895
aF0.7264957264957265
aF0.8
aF0.8928571428571429
aF0.75
aF0.9368421052631579
aF0.44548872180451127
aF0.7350427350427351
aF0.8233333333333334
aF0.6470588235294118
aF0.5235892691951897
aF0.5777777777777777
aF0.6666666666666666
aF0.6773399014778325
aF0.8571428571428571
aF0.8476190476190476
aF0.537746806039489
aF0.782608695652174
aF0.6594202898550725
aF0.6534391534391535
aF0.6571428571428571
aF0.8571428571428571
aF0.6436781609195402
aF0.6238095238095238
aF0.7509881422924901
aF0.8
aF0.8210526315789474
aF0.819047619047619
aF0.7953216374269005
aF0.6231231231231231
aF0.5820512820512821
aF0.5320056899004267
aF0.72
aF0.8
aF0.5968253968253968
aF0.7272727272727273
aF0.6773399014778325
aF0.7068965517241379
aF0.8222222222222222
aF0.7111111111111111
aF0.9916666666666667
aaa(lp259
S'sub-0025906_ses-2_dwi_desikan.gpickle'
p260
a(lp261
F0.5312046444121916
aF0.8184615384615385
aF0.7948717948717948
aF0.6356589147286822
aF0.5392156862745098
aF0.6703296703296703
aF0.783068783068783
aF0.7518939393939394
aF0.8761904761904762
aF0.7518939393939394
aF0.6372688477951636
aF0.7028985507246377
aF0.7236467236467237
aF0.7384615384615385
aF0.6238095238095238
aF0.780241935483871
aF0.8022988505747126
aF0.750445632798574
aF0.8
aF0.9084967320261438
aF0.84
aF0.7435897435897436
aF0.7290322580645161
aF0.6799431009957326
aF0.645760743321719
aF0.7258064516129032
aF0.7192118226600985
aF0.8066666666666666
aF0.6202090592334495
aF0.7569892473118279
aF0.732620320855615
aF0.8616600790513834
aF0.7142857142857143
aF0.75
aF0.9105263157894737
aF0.4559322033898305
aF0.6733870967741935
aF0.811965811965812
aF0.6521008403361345
aF0.5080363382250175
aF0.6428571428571429
aF0.6996047430830039
aF0.7391304347826086
aF0.8008658008658008
aF0.8571428571428571
aF0.545790934320074
aF0.7380952380952381
aF0.6304347826086957
aF0.6410256410256411
aF0.6095238095238096
aF0.9
aF0.6207827260458839
aF0.5869324473975637
aF0.7717391304347826
aF0.8611111111111112
aF0.8398268398268398
aF0.7727272727272727
aF0.8727272727272727
aF0.5913621262458472
aF0.5381205673758865
aF0.5280487804878049
aF0.7008547008547008
aF0.7952380952380952
aF0.6190476190476191
aF0.7210144927536232
aF0.6534391534391535
aF0.7766666666666666
aF0.7142857142857143
aF0.7777777777777778
aF0.9934640522875817
aaa(lp262
S'sub-0025907_ses-1_dwi_desikan.gpickle'
p263
a(lp264
F0.49513568868407576
aF0.825287356321839
aF0.8325123152709359
aF0.6138763197586727
aF0.5645363408521303
aF0.6813186813186813
aF0.7076923076923077
aF0.8021505376344086
aF0.8701298701298701
aF0.7721774193548387
aF0.6134146341463415
aF0.7536231884057971
aF0.7008547008547008
aF0.6549707602339181
aF0.6198830409356725
aF0.8553846153846154
aF0.707936507936508
aF0.7166085946573751
aF0.8461538461538461
aF0.7777777777777778
aF0.8623188405797102
aF0.9560439560439561
aF0.7222222222222222
aF0.6377551020408163
aF0.6095791001451378
aF0.7361853832442068
aF0.7379310344827587
aF0.811965811965812
aF0.5744234800838575
aF0.7782258064516129
aF0.6799431009957326
aF0.8206896551724138
aF0.7111111111111111
aF0.5777777777777777
aF0.9287749287749287
aF0.538281706604325
aF0.8942528735632184
aF0.8774928774928775
aF0.651595744680851
aF0.5620300751879699
aF0.6388888888888888
aF0.7222222222222222
aF0.7943548387096774
aF0.8344086021505376
aF0.8387096774193549
aF0.5733333333333334
aF0.7707509881422925
aF0.7272727272727273
aF0.6601307189542484
aF0.5887445887445888
aF0.9137931034482759
aF0.7777777777777778
aF0.8371212121212122
aF0.7680672268907563
aF0.8659420289855072
aF0.9
aF0.8888888888888888
aF0.9096774193548387
aF0.6359183673469387
aF0.6488095238095238
aF0.6213704994192799
aF0.8538011695906432
aF0.7839080459770115
aF0.573063973063973
aF0.789247311827957
aF0.8390151515151515
aF0.9096774193548387
aF0.6666666666666666
aF0.7272727272727273
aF0.9476923076923077
aaa(lp265
S'sub-0025907_ses-2_dwi_desikan.gpickle'
p266
a(lp267
F0.5246753246753246
aF0.8349753694581281
aF0.8325123152709359
aF0.5926530612244898
aF0.5967346938775511
aF0.7142857142857143
aF0.6587301587301587
aF0.7783251231527094
aF0.841897233201581
aF0.7763440860215054
aF0.6365853658536585
aF0.7318840579710145
aF0.6880570409982175
aF0.5497835497835498
aF0.6421052631578947
aF0.8251231527093597
aF0.6506238859180036
aF0.8253968253968254
aF0.8465608465608465
aF1.0
aF0.9169960474308301
aF0.7254901960784313
aF0.8253968253968254
aF0.6318223866790009
aF0.6846153846153846
aF0.6500711237553343
aF0.7721774193548387
aF0.7724137931034483
aF0.6028368794326241
aF0.683076923076923
aF0.7254901960784313
aF0.9347826086956522
aF0.8714285714285714
aF0.6388888888888888
aF0.8472906403940886
aF0.49853886616014026
aF0.6705882352941176
aF0.8226600985221675
aF0.6101010101010101
aF0.5544267053701016
aF0.5555555555555556
aF0.5726495726495726
aF0.7230769230769231
aF0.7922077922077922
aF0.7862318840579711
aF0.5565217391304348
aF0.6430769230769231
aF0.7446153846153846
aF0.5904761904761905
aF0.680952380952381
aF0.8658008658008658
aF0.6946236559139785
aF0.7045454545454546
aF0.7632575757575758
aF0.8984615384615384
aF0.9492753623188406
aF0.8484848484848485
aF0.798941798941799
aF0.5930851063829787
aF0.5625942684766214
aF0.5484848484848485
aF0.8584615384615385
aF0.7758620689655172
aF0.5240259740259741
aF0.7571428571428571
aF0.8047619047619048
aF0.7512315270935961
aF0.8095238095238095
aF0.8222222222222222
aF0.9044117647058824
aaa(lp268
S'sub-0025908_ses-1_dwi_desikan.gpickle'
p269
a(lp270
F0.5128205128205128
aF0.8533333333333334
aF0.9433333333333334
aF0.6234772978959026
aF0.580018501387604
aF0.6761904761904762
aF0.7094017094017094
aF0.746031746031746
aF0.8476190476190476
aF0.7749287749287749
aF0.5804878048780487
aF0.6736842105263158
aF0.7389162561576355
aF0.6623376623376623
aF0.5770750988142292
aF0.803076923076923
aF0.7663817663817664
aF0.7311827956989247
aF0.7494252873563219
aF0.7857142857142857
aF0.8575498575498576
aF0.6833333333333333
aF0.9307359307359307
aF0.6035437430786268
aF0.6378048780487805
aF0.5975975975975976
aF0.8148148148148148
aF0.8176638176638177
aF0.5587419056429233
aF0.7476923076923077
aF0.7753846153846153
aF0.8695652173913043
aF0.8
aF0.6388888888888888
aF0.924901185770751
aF0.4868686868686869
aF0.8379446640316206
aF0.9133333333333333
aF0.6283391405342624
aF0.6078224101479915
aF0.75
aF0.6206896551724138
aF0.7905138339920948
aF0.8138528138528138
aF0.7905138339920948
aF0.583610188261351
aF0.6276923076923077
aF0.7065217391304348
aF0.5238095238095238
aF0.6633064516129032
aF0.8857142857142857
aF0.6047619047619047
aF0.7218390804597701
aF0.7655913978494624
aF1.0
aF0.8933333333333333
aF0.6794871794871795
aF0.8888888888888888
aF0.650472334682861
aF0.6275303643724697
aF0.5653846153846154
aF0.8152709359605911
aF0.8369230769230769
aF0.5565656565656566
aF0.7210144927536232
aF0.83399209486166
aF0.7876923076923077
aF0.7142857142857143
aF0.6785714285714286
aF0.9869281045751634
aaa(lp271
S'sub-0025908_ses-2_dwi_desikan.gpickle'
p272
a(lp273
F0.5087351502445842
aF0.8333333333333334
aF0.8367816091954023
aF0.5722448979591837
aF0.5697959183673469
aF0.6666666666666666
aF0.7095238095238096
aF0.7566666666666667
aF0.8268398268398268
aF0.7492877492877493
aF0.5890243902439024
aF0.6476190476190476
aF0.7407407407407407
aF0.5615942028985508
aF0.631578947368421
aF0.7846153846153846
aF0.7248677248677249
aF0.7834757834757835
aF0.8251231527093597
aF0.7333333333333333
aF0.8984615384615384
aF0.6794871794871795
aF0.8066666666666666
aF0.6101010101010101
aF0.6213704994192799
aF0.5964912280701754
aF0.8226600985221675
aF0.8148148148148148
aF0.530920060331825
aF0.7261538461538461
aF0.76
aF0.8133333333333334
aF0.9047619047619048
aF0.6785714285714286
aF0.9315789473684211
aF0.5058441558441559
aF0.6789915966386555
aF0.8575498575498576
aF0.6416490486257929
aF0.5985198889916744
aF0.7222222222222222
aF0.6748768472906403
aF0.7333333333333333
aF0.7266009852216748
aF0.7865612648221344
aF0.5961945031712473
aF0.616600790513834
aF0.7378917378917379
aF0.5588235294117647
aF0.7053763440860215
aF0.8714285714285714
aF0.6145092460881935
aF0.7832512315270936
aF0.7629233511586453
aF1.0
aF0.8892307692307693
aF0.6373626373626373
aF0.8888888888888888
aF0.6970128022759602
aF0.6490486257928119
aF0.6258890469416786
aF0.8298850574712644
aF0.8201058201058201
aF0.5846438482886216
aF0.7037037037037037
aF0.7379310344827587
aF0.8386243386243386
aF0.8095238095238095
aF0.6785714285714286
aF0.9004329004329005
aaa(lp274
S'sub-0025909_ses-1_dwi_desikan.gpickle'
p275
a(lp276
F0.5033282130056324
aF0.7961538461538461
aF0.7549857549857549
aF0.6410256410256411
aF0.5601935874168179
aF0.7952380952380952
aF0.7470355731225297
aF0.7479674796747967
aF0.8580645161290322
aF0.7479674796747967
aF0.6383673469387755
aF0.8063241106719368
aF0.6164021164021164
aF0.7881773399014779
aF0.5928853754940712
aF0.8386243386243386
aF0.7804878048780488
aF0.7246376811594203
aF0.7575757575757576
aF0.9444444444444444
aF0.7619047619047619
aF0.803076923076923
aF0.8206896551724138
aF0.6266968325791855
aF0.7141414141414142
aF0.7009966777408638
aF0.7046153846153846
aF0.7238095238095238
aF0.5961538461538461
aF0.9138461538461539
aF0.7029598308668076
aF0.8467741935483871
aF0.8666666666666667
aF0.7142857142857143
aF0.833570412517781
aF0.5378531073446328
aF0.8714285714285714
aF0.782608695652174
aF0.6146179401993356
aF0.5645363408521303
aF0.7272727272727273
aF0.7076023391812866
aF0.7543859649122807
aF0.846031746031746
aF0.7798319327731092
aF0.5928882438316401
aF0.7813765182186235
aF0.6058201058201058
aF0.768270944741533
aF0.6210526315789474
aF0.9133333333333333
aF0.786628733997155
aF0.7711962833914053
aF0.7509881422924901
aF0.8571428571428571
aF0.8083333333333333
aF0.7233333333333334
aF0.8853754940711462
aF0.8412698412698413
aF0.7029598308668076
aF0.6196808510638298
aF0.7543859649122807
aF0.7105263157894737
aF0.5576923076923077
aF0.7975708502024291
aF0.751219512195122
aF0.829302987197724
aF0.75
aF0.8666666666666667
aF0.8894830659536542
aaa(lp277
S'sub-0025909_ses-2_dwi_desikan.gpickle'
p278
a(lp279
F0.5453149001536098
aF0.8338870431893688
aF0.7784615384615384
aF0.6240391334730957
aF0.6303030303030303
aF0.8809523809523809
aF0.6796536796536796
aF0.7603864734299517
aF0.8378048780487805
aF0.7828282828282829
aF0.6598793363499246
aF0.8369565217391305
aF0.6584615384615384
aF0.8412698412698413
aF0.580952380952381
aF0.8461538461538461
aF0.7818181818181819
aF0.8
aF0.7233333333333334
aF0.9444444444444444
aF0.7905138339920948
aF0.8840579710144928
aF0.7968253968253968
aF0.7077551020408164
aF0.7446808510638298
aF0.781183932346723
aF0.7433333333333333
aF0.7523809523809524
aF0.587737843551797
aF0.927536231884058
aF0.7603864734299517
aF0.8339140534262486
aF0.7857142857142857
aF0.7222222222222222
aF0.8707317073170732
aF0.5843920145190563
aF0.930298719772404
aF0.8079710144927537
aF0.6312292358803987
aF0.648766328011611
aF0.6888888888888889
aF0.6476190476190476
aF0.7547568710359408
aF0.9429429429429429
aF0.8475033738191633
aF0.6205450733752621
aF0.818815331010453
aF0.6413793103448275
aF0.7782051282051282
aF0.6081871345029239
aF0.9047619047619048
aF0.7685492801771872
aF0.8443670150987224
aF0.7489177489177489
aF0.8888888888888888
aF0.8238095238095238
aF0.8761904761904762
aF0.8952380952380953
aF0.8677462887989204
aF0.6705882352941176
aF0.6457142857142857
aF0.8052631578947368
aF0.7229437229437229
aF0.6111111111111112
aF0.8615384615384616
aF0.7525252525252525
aF0.9163292847503374
aF0.7142857142857143
aF0.8666666666666667
aF0.9068825910931174
aaa(lp280
S'sub-0025910_ses-1_dwi_desikan.gpickle'
p281
a(lp282
F0.45587375803623614
aF0.8961038961038961
aF0.849802371541502
aF0.6386554621848739
aF0.502262443438914
aF0.7583333333333333
aF0.6060606060606061
aF0.7207977207977208
aF0.8961038961038961
aF0.7866666666666666
aF0.5180388529139686
aF0.6984615384615385
aF0.5533333333333333
aF0.6
aF0.5842105263157895
aF0.8476190476190476
aF0.7169230769230769
aF0.5603864734299517
aF0.7391304347826086
aF0.9333333333333333
aF0.8187134502923976
aF0.9523809523809523
aF0.8578947368421053
aF0.5690821256038647
aF0.5348639455782312
aF0.5615384615384615
aF0.7532467532467533
aF0.6894586894586895
aF0.5764705882352941
aF0.7630769230769231
aF0.6699507389162561
aF0.9315789473684211
aF0.75
aF0.6444444444444445
aF0.9122807017543859
aF0.4898403483309144
aF0.9233333333333333
aF0.72
aF0.6386554621848739
aF0.5494912118408881
aF0.8571428571428571
aF0.6190476190476191
aF0.6912878787878788
aF0.8803418803418803
aF0.8227513227513228
aF0.602436323366556
aF0.7494252873563219
aF0.6630434782608695
aF0.6752136752136753
aF0.5367965367965368
aF0.8866666666666667
aF0.6576354679802956
aF0.6936936936936937
aF0.8333333333333334
aF0.9010989010989011
aF0.8791208791208791
aF0.7380952380952381
aF0.7229437229437229
aF0.6936507936507936
aF0.602436323366556
aF0.5768292682926829
aF0.7272727272727273
aF0.6666666666666666
aF0.5721997300944669
aF0.7770114942528735
aF0.7258064516129032
aF0.8544973544973545
aF0.6666666666666666
aF0.803030303030303
aF0.9826839826839827
aaa(lp283
S'sub-0025910_ses-2_dwi_desikan.gpickle'
p284
a(lp285
F0.43015780245470486
aF0.8761904761904762
aF0.7857142857142857
aF0.6476190476190476
aF0.5319148936170213
aF0.8571428571428571
aF0.5947712418300654
aF0.758893280632411
aF0.8484848484848485
aF0.8095238095238095
aF0.5561877667140825
aF0.7509881422924901
aF0.6086956521739131
aF0.5665024630541872
aF0.5380952380952381
aF0.8095238095238095
aF0.62
aF0.6060606060606061
aF0.7486772486772487
aF0.8095238095238095
aF0.8066666666666666
aF0.7912087912087912
aF0.7533333333333333
aF0.5765765765765766
aF0.5433403805496829
aF0.5435435435435435
aF0.8526315789473684
aF0.7389162561576355
aF0.6875
aF0.7318840579710145
aF0.6068965517241379
aF0.861904761904762
aF0.7619047619047619
aF0.7142857142857143
aF0.9738562091503268
aF0.4856711915535445
aF0.7019704433497537
aF0.8646153846153846
aF0.6844919786096256
aF0.5565656565656566
aF0.6666666666666666
aF0.6198830409356725
aF0.6182266009852216
aF0.7569230769230769
aF0.7572463768115942
aF0.530454042081949
aF0.638095238095238
aF0.7142857142857143
aF0.5952380952380952
aF0.5555555555555556
aF0.8051948051948052
aF0.696969696969697
aF0.6685606060606061
aF0.9209486166007905
aF0.8442028985507246
aF0.9904761904761905
aF0.8571428571428571
aF0.6970443349753694
aF0.6648841354723708
aF0.6085365853658536
aF0.5101214574898786
aF0.7758620689655172
aF0.83
aF0.5768292682926829
aF0.6957671957671958
aF0.7114624505928854
aF0.7866666666666666
aF0.7555555555555555
aF0.6785714285714286
aF0.8897058823529411
aaa(lp286
S'sub-0025911_ses-1_dwi_desikan.gpickle'
p287
a(lp288
F0.540194572452637
aF0.841025641025641
aF0.8184615384615385
aF0.613933236574746
aF0.6181818181818182
aF0.8545454545454545
aF0.6549707602339181
aF0.7828106852497096
aF0.8475033738191633
aF0.7828106852497096
aF0.6658163265306123
aF0.8423423423423423
aF0.6561264822134387
aF0.7674418604651163
aF0.5454545454545454
aF0.8478260869565217
aF0.7758620689655172
aF0.7980972515856237
aF0.7933333333333333
aF0.9642857142857143
aF0.8088235294117647
aF0.7714285714285715
aF0.8097560975609757
aF0.6901960784313725
aF0.6531204644412192
aF0.7198067632850241
aF0.7631578947368421
aF0.7133333333333334
aF0.5674891146589259
aF0.8407557354925776
aF0.8109756097560976
aF0.8805120910384068
aF0.75
aF0.6388888888888888
aF0.9869281045751634
aF0.5650273224043716
aF0.8118466898954704
aF0.8876811594202898
aF0.7677419354838709
aF0.6123376623376623
aF0.8307692307692308
aF0.7301587301587301
aF0.7758985200845666
aF0.8292682926829268
aF0.824390243902439
aF0.5977011494252874
aF0.9126984126984127
aF0.6410256410256411
aF0.8
aF0.5543478260869565
aF0.7865853658536586
aF0.7510668563300142
aF0.8573170731707317
aF0.7777777777777778
aF0.7619047619047619
aF0.8115942028985508
aF0.946524064171123
aF0.8596059113300493
aF0.7023809523809523
aF0.6995918367346938
aF0.6737588652482269
aF0.7538461538461538
aF0.7353846153846154
aF0.6587301587301587
aF0.8564102564102564
aF0.7247311827956989
aF0.8246225319396051
aF0.8095238095238095
aF0.7121212121212122
aF0.967032967032967
aaa(lp289
S'sub-0025911_ses-2_dwi_desikan.gpickle'
p290
a(lp291
F0.5576036866359447
aF0.8987854251012146
aF0.8153846153846154
aF0.6688251618871416
aF0.6225045372050817
aF0.8545454545454545
aF0.7315789473684211
aF0.8327526132404182
aF0.9061166429587483
aF0.8327526132404182
aF0.6802413273001509
aF0.8933143669985776
aF0.6904761904761905
aF0.7885835095137421
aF0.5942028985507246
aF0.8910256410256411
aF0.8493909191583611
aF0.8446088794926004
aF0.7933333333333333
aF0.9642857142857143
aF0.8380952380952381
aF0.8833333333333333
aF0.8615725359911407
aF0.7330612244897959
aF0.6454545454545455
aF0.7855072463768116
aF0.7359307359307359
aF0.7103448275862069
aF0.6038461538461538
aF0.8317073170731707
aF0.8634146341463415
aF0.9115384615384615
aF0.8095238095238095
aF0.6785714285714286
aF0.9554367201426025
aF0.578688524590164
aF0.8975609756097561
aF0.9393939393939394
aF0.8201058201058201
aF0.617664851784634
aF0.875
aF0.7632575757575758
aF0.8097251585623678
aF0.8768292682926829
aF0.8327526132404182
aF0.6194797338173019
aF0.9163292847503374
aF0.6215384615384615
aF0.8833333333333333
aF0.5887445887445888
aF0.8362369337979094
aF0.7851335656213705
aF0.8067632850241546
aF0.9307359307359307
aF0.8214285714285714
aF0.8441558441558441
aF0.9301587301587302
aF0.7751937984496124
aF0.7293844367015099
aF0.6785464709993012
aF0.6809954751131222
aF0.7692307692307693
aF0.76
aF0.6731182795698925
aF0.9102564102564102
aF0.7678812415654521
aF0.7884057971014493
aF0.8095238095238095
aF0.8461538461538461
aF0.9777777777777777
aaa(lp292
S'sub-0025912_ses-1_dwi_desikan.gpickle'
p293
a(lp294
F0.4681818181818182
aF0.8932806324110671
aF0.8102766798418972
aF0.5537098560354374
aF0.5559246954595792
aF0.7279411764705882
aF0.616600790513834
aF0.81
aF0.8659420289855072
aF0.7815384615384615
aF0.5936507936507937
aF0.75
aF0.5714285714285714
aF0.6825396825396826
aF0.5661375661375662
aF0.782608695652174
aF0.7236467236467237
aF0.6834677419354839
aF0.7489177489177489
aF0.8214285714285714
aF0.8952380952380953
aF0.7571428571428571
aF0.6218487394957983
aF0.6774193548387096
aF0.5254394079555966
aF0.6184873949579832
aF0.7351778656126482
aF0.7101449275362319
aF0.5231707317073171
aF0.7248677248677249
aF0.6689655172413793
aF0.8433333333333334
aF0.8666666666666667
aF0.6363636363636364
aF0.9523809523809523
aF0.4716981132075472
aF0.7857142857142857
aF0.8285714285714286
aF0.615931721194879
aF0.5444444444444444
aF0.7252747252747253
aF0.6376811594202898
aF0.6167557932263814
aF0.8484848484848485
aF0.7407407407407407
aF0.5492801771871539
aF0.7272727272727273
aF0.691699604743083
aF0.6536796536796536
aF0.5978260869565217
aF0.8484848484848485
aF0.573015873015873
aF0.5621951219512196
aF0.6580645161290323
aF0.9272727272727272
aF0.8235294117647058
aF0.7712418300653595
aF0.6666666666666666
aF0.7407407407407407
aF0.5656213704994193
aF0.5329268292682927
aF0.7015384615384616
aF0.7012987012987013
aF0.5448504983388704
aF0.7266666666666667
aF0.6860215053763441
aF0.7720797720797721
aF0.7142857142857143
aF0.6813186813186813
aF0.9095238095238095
aaa(lp295
S'sub-0025912_ses-2_dwi_desikan.gpickle'
p296
a(lp297
F0.4636363636363636
aF0.8215384615384616
aF0.7692307692307693
aF0.5737514518002322
aF0.5400966183574879
aF0.6571428571428571
aF0.5571428571428572
aF0.7777777777777778
aF0.9142857142857143
aF0.7777777777777778
aF0.5974395448079659
aF0.7066666666666667
aF0.6809116809116809
aF0.6780626780626781
aF0.6033333333333334
aF0.7433333333333333
aF0.6086021505376344
aF0.6452762923351159
aF0.687192118226601
aF0.8021978021978022
aF0.8970588235294118
aF0.7012987012987013
aF0.6693121693121693
aF0.6838709677419355
aF0.6017069701280228
aF0.566145092460882
aF0.8142292490118577
aF0.7486772486772487
aF0.5551282051282052
aF0.6851851851851852
aF0.696551724137931
aF0.8616600790513834
aF0.7857142857142857
aF0.7142857142857143
aF0.8972332015810277
aF0.47205387205387206
aF0.8061538461538461
aF0.8458498023715415
aF0.6381381381381381
aF0.4779874213836478
aF0.7058823529411765
aF0.7368421052631579
aF0.6108870967741935
aF0.8514492753623188
aF0.7784615384615384
aF0.4846938775510204
aF0.6956521739130435
aF0.6688172043010753
aF0.6947368421052632
aF0.6169354838709677
aF0.8
aF0.6645161290322581
aF0.64349376114082
aF0.7350427350427351
aF0.9333333333333333
aF0.8484848484848485
aF0.7485380116959064
aF0.7065527065527065
aF0.6817204301075269
aF0.5443974630021141
aF0.5243589743589744
aF0.8153846153846154
aF0.7753846153846153
aF0.5426356589147286
aF0.7292307692307692
aF0.7248677248677249
aF0.8333333333333334
aF0.9047619047619048
aF0.7272727272727273
aF0.9934640522875817
aaa(lp298
S'sub-0025913_ses-1_dwi_desikan.gpickle'
p299
a(lp300
F0.45925925925925926
aF0.9411764705882353
aF0.8376068376068376
aF0.6246246246246246
aF0.5658914728682171
aF0.6483516483516484
aF0.5844155844155844
aF0.7015384615384616
aF0.8380952380952381
aF0.7944664031620553
aF0.5333333333333333
aF0.7947368421052632
aF0.6350806451612904
aF0.5952380952380952
aF0.541501976284585
aF0.8105263157894737
aF0.7391304347826086
aF0.5561877667140825
aF0.7936507936507936
aF0.8484848484848485
aF0.8376068376068376
aF0.673202614379085
aF0.782608695652174
aF0.5917496443812233
aF0.5346153846153846
aF0.5428571428571428
aF0.8161764705882353
aF0.7241379310344828
aF0.540420819490587
aF0.6923076923076923
aF0.766798418972332
aF0.8441558441558441
aF0.8
aF0.7142857142857143
aF0.967032967032967
aF0.5485661424606846
aF0.8007246376811594
aF0.8518518518518519
aF0.6936507936507936
aF0.6144018583042973
aF0.696969696969697
aF0.6491228070175439
aF0.6174603174603175
aF0.8354978354978355
aF0.7748917748917749
aF0.561877667140825
aF0.7380952380952381
aF0.66
aF0.6195652173913043
aF0.6147186147186147
aF0.6666666666666666
aF0.6587301587301587
aF0.6396761133603239
aF0.7980295566502463
aF0.8571428571428571
aF0.8430769230769231
aF0.7454545454545455
aF0.8701298701298701
aF0.7142857142857143
aF0.6358974358974359
aF0.5376955903271693
aF0.7575757575757576
aF0.7247311827956989
aF0.6844919786096256
aF0.7355072463768116
aF0.6238095238095238
aF0.9
aF0.7333333333333333
aF0.6727272727272727
aF1.0
aaa(lp301
S'sub-0025913_ses-2_dwi_desikan.gpickle'
p302
a(lp303
F0.4957983193277311
aF0.0
aF0.8970588235294118
aF0.0
aF0.7037037037037037
aF0.5833333333333334
aF0.5714285714285714
aF0.6666666666666666
aF0.0
aF0.0
aF0.6190476190476191
aF0.47619047619047616
aF0.7712418300653595
aF0.36363636363636365
aF0.5930735930735931
aF0.0
aF0.5357142857142857
aF0.42857142857142855
aF0.0
aF0.0
aF0.0
aF0.7333333333333333
aF0.6666666666666666
aF0.7571428571428571
aF0.6666666666666666
aF0.4485294117647059
aF0.7894736842105263
aF0.6666666666666666
aF0.631578947368421
aF0.42857142857142855
aF0.0
aF0.0
aF0.8
aF1.0
aF0.0
aF0.4959349593495935
aF0.9181286549707602
aF0.9117647058823529
aF0.6365591397849463
aF0.5682539682539682
aF0.6181818181818182
aF0.6209150326797386
aF0.6430769230769231
aF0.7835497835497836
aF0.7246376811594203
aF0.53003003003003
aF0.6993464052287581
aF0.7684210526315789
aF0.5032679738562091
aF0.6285714285714286
aF0.7786561264822134
aF0.6719367588932806
aF0.6206896551724138
aF0.6956521739130435
aF0.8758169934640523
aF0.875
aF0.7142857142857143
aF0.7433333333333333
aF0.7133333333333334
aF0.5984848484848485
aF0.4695121951219512
aF0.8052631578947368
aF0.7366666666666667
aF0.6229885057471264
aF0.6666666666666666
aF0.8011695906432749
aF0.8842105263157894
aF0.8727272727272727
aF0.6444444444444445
aF0.9809523809523809
aaa(lp304
S'sub-0025914_ses-1_dwi_desikan.gpickle'
p305
a(lp306
F0.5016393442622951
aF0.8433048433048433
aF0.803030303030303
aF0.6382978723404256
aF0.5525974025974026
aF0.7192982456140351
aF0.7792207792207793
aF0.7881773399014779
aF0.9428571428571428
aF0.7881773399014779
aF0.6302294197031039
aF0.7246376811594203
aF0.6903225806451613
aF0.77
aF0.616600790513834
aF0.8095238095238095
aF0.7462365591397849
aF0.6575757575757576
aF0.927536231884058
aF0.6666666666666666
aF0.9047619047619048
aF0.7272727272727273
aF0.6825396825396826
aF0.5929411764705882
aF0.6081632653061224
aF0.6558704453441295
aF0.8461538461538461
aF0.792022792022792
aF0.5749019607843138
aF0.7563218390804598
aF0.7139784946236559
aF0.7026515151515151
aF0.7222222222222222
aF0.6388888888888888
aF0.8933333333333333
aF0.5245009074410163
aF0.6876876876876877
aF0.8226600985221675
aF0.7496443812233285
aF0.6096938775510204
aF0.7051282051282052
aF0.7126050420168067
aF0.7254901960784313
aF0.8473684210526315
aF0.7908045977011494
aF0.563265306122449
aF0.6493506493506493
aF0.6646153846153846
aF0.631578947368421
aF0.6521739130434783
aF0.7908045977011494
aF0.6909581646423751
aF0.7394957983193278
aF0.7368421052631579
aF0.8571428571428571
aF0.841897233201581
aF0.7
aF0.7230769230769231
aF0.6887340301974448
aF0.6327474560592045
aF0.6173361522198731
aF0.8015873015873016
aF0.7660098522167488
aF0.6728307254623044
aF0.7815384615384615
aF0.7661290322580645
aF0.8306451612903226
aF0.9047619047619048
aF0.8
aF0.94
aaa(lp307
S'sub-0025914_ses-2_dwi_desikan.gpickle'
p308
a(lp309
F0.5005464480874317
aF0.7825396825396825
aF0.8276923076923077
aF0.6522702104097453
aF0.5558441558441558
aF0.8315789473684211
aF0.6753246753246753
aF0.7411095305832148
aF0.9619047619047619
aF0.7411095305832148
aF0.6423751686909581
aF0.7681159420289855
aF0.6459770114942529
aF0.7380952380952381
aF0.580952380952381
aF0.7700534759358288
aF0.7781512605042017
aF0.6747474747474748
aF0.9142857142857143
aF0.9
aF0.8458498023715415
aF0.7747035573122529
aF0.6722689075630253
aF0.6023529411764705
aF0.6039215686274509
aF0.7849462365591398
aF0.7633333333333333
aF0.7107692307692308
aF0.5731523378582202
aF0.803076923076923
aF0.6961538461538461
aF0.8518518518518519
aF0.8928571428571429
aF0.7142857142857143
aF0.7841269841269841
aF0.5515151515151515
aF0.7563025210084033
aF0.8731884057971014
aF0.6981981981981982
aF0.5882352941176471
aF0.6666666666666666
aF0.7720797720797721
aF0.6576923076923077
aF0.7878787878787878
aF0.7147147147147147
aF0.602020202020202
aF0.6102941176470589
aF0.6442687747035574
aF0.6081871345029239
aF0.5952380952380952
aF0.7586206896551724
aF0.7619047619047619
aF0.7038461538461539
aF0.7247311827956989
aF0.9333333333333333
aF0.8181818181818182
aF0.9090909090909091
aF0.8276515151515151
aF0.7346153846153847
aF0.6733615221987315
aF0.573170731707317
aF0.7666666666666667
aF0.7292307692307692
aF0.6238095238095238
aF0.696969696969697
aF0.7630252100840336
aF0.8016806722689076
aF0.7857142857142857
aF0.7777777777777778
aF0.9486166007905138
aaa(lp310
S'sub-0025915_ses-1_dwi_desikan.gpickle'
p311
a(lp312
F0.5357142857142857
aF0.8862433862433863
aF0.7741935483870968
aF0.6299722479185939
aF0.5968627450980392
aF0.7777777777777778
aF0.6857142857142857
aF0.8068965517241379
aF0.8659420289855072
aF0.8
aF0.6180836707152496
aF0.8169934640522876
aF0.7815384615384615
aF0.6731182795698925
aF0.7266666666666667
aF0.8553846153846154
aF0.7126984126984127
aF0.7708333333333334
aF0.7015873015873015
aF0.9696969696969697
aF0.9857142857142858
aF0.8484848484848485
aF0.7310606060606061
aF0.6744186046511628
aF0.6644518272425249
aF0.6500711237553343
aF0.8833333333333333
aF0.87
aF0.5803921568627451
aF0.7479838709677419
aF0.8137931034482758
aF0.9696969696969697
aF1.0
aF0.6666666666666666
aF0.9145299145299145
aF0.5137346580946814
aF0.84
aF0.7842741935483871
aF0.592687074829932
aF0.5344155844155845
aF0.75
aF0.6333333333333333
aF0.7063492063492064
aF0.857707509881423
aF0.7407407407407407
aF0.6076923076923076
aF0.825
aF0.6957983193277311
aF0.5294117647058824
aF0.6587301587301587
aF0.8537549407114624
aF0.6586059743954481
aF0.7367424242424242
aF0.7433155080213903
aF1.0
aF0.8386243386243386
aF0.9111111111111111
aF0.791005291005291
aF0.6183574879227053
aF0.6125603864734299
aF0.5835095137420718
aF0.8229885057471265
aF0.8121693121693122
aF0.5714285714285714
aF0.75
aF0.7569892473118279
aF0.922077922077922
aF1.0
aF0.8351648351648352
aF1.0
aaa(lp313
S'sub-0025915_ses-2_dwi_desikan.gpickle'
p314
a(lp315
F0.5553539019963702
aF0.9323076923076923
aF0.7888888888888889
aF0.6037735849056604
aF0.6009783368273934
aF0.7777777777777778
aF0.7741935483870968
aF0.7632183908045977
aF0.8584615384615385
aF0.8359788359788359
aF0.6666666666666666
aF0.8225108225108225
aF0.7068965517241379
aF0.6799431009957326
aF0.7126436781609196
aF0.8769230769230769
aF0.7222222222222222
aF0.8078817733990148
aF0.6535353535353535
aF1.0
aF0.9264069264069265
aF0.8545454545454545
aF0.6858585858585858
aF0.6462585034013606
aF0.6250980392156863
aF0.7044534412955465
aF0.7891737891737892
aF0.83
aF0.6039215686274509
aF0.7522281639928698
aF0.8774928774928775
aF0.9565217391304348
aF0.6
aF0.6666666666666666
aF0.974025974025974
aF0.5372881355932203
aF0.9046153846153846
aF0.8050420168067227
aF0.669750231267345
aF0.6253061224489795
aF0.75
aF0.6570048309178744
aF0.7333333333333333
aF0.7862903225806451
aF0.7876923076923077
aF0.6222222222222222
aF0.8166666666666667
aF0.7174603174603175
aF0.5666666666666667
aF0.7052631578947368
aF0.9004329004329005
aF0.6606060606060606
aF0.8057040998217468
aF0.8016806722689076
aF0.9238095238095239
aF0.9266666666666666
aF0.9444444444444444
aF0.8541666666666666
aF0.7224157955865272
aF0.7119628339140535
aF0.6063829787234043
aF0.8603988603988604
aF0.8201058201058201
aF0.6228571428571429
aF0.7344537815126051
aF0.8746438746438746
aF0.844758064516129
aF0.6
aF0.8939393939393939
aF1.0
aaa(lp316
S'sub-0025916_ses-1_dwi_desikan.gpickle'
p317
a(lp318
F0.5695317959468903
aF0.8408602150537634
aF0.8137931034482758
aF0.6338652482269503
aF0.62322695035461
aF0.7
aF0.7178030303030303
aF0.75
aF0.886039886039886
aF0.7746212121212122
aF0.6646341463414634
aF0.7402597402597403
aF0.7561576354679803
aF0.7192118226600985
aF0.6707692307692308
aF0.8490028490028491
aF0.8084677419354839
aF0.789247311827957
aF0.7721774193548387
aF0.9916666666666667
aF0.9437229437229437
aF0.8713450292397661
aF0.6722037652270211
aF0.6871794871794872
aF0.6024489795918367
aF0.6602564102564102
aF0.8518518518518519
aF0.8347578347578347
aF0.6038647342995169
aF0.7932263814616756
aF0.7784090909090909
aF0.7896613190730838
aF0.8
aF0.6888888888888889
aF0.8915343915343915
aF0.49814912744579587
aF0.7149425287356321
aF0.8518518518518519
aF0.5851063829787234
aF0.5178258328462887
aF0.6666666666666666
aF0.6209677419354839
aF0.7415384615384616
aF0.935064935064935
aF0.8514492753623188
aF0.5505882352941176
aF0.8007246376811594
aF0.7075268817204301
aF0.6827586206896552
aF0.6184615384615385
aF0.9264069264069265
aF0.6402439024390244
aF0.6605042016806723
aF0.8738461538461538
aF0.8611111111111112
aF0.8614718614718615
aF0.8616600790513834
aF0.6931818181818182
aF0.6067632850241546
aF0.5474747474747474
aF0.5372340425531915
aF0.8253968253968254
aF0.7777777777777778
aF0.5902547065337763
aF0.9051383399209486
aF0.6491935483870968
aF0.9169960474308301
aF0.7333333333333333
aF0.7692307692307693
aF0.9947368421052631
aaa(lp319
S'sub-0025916_ses-2_dwi_desikan.gpickle'
p320
a(lp321
F0.5737246680642907
aF0.9011494252873563
aF0.8152709359605911
aF0.6445035460992907
aF0.6310204081632653
aF0.83399209486166
aF0.7075630252100841
aF0.8068181818181818
aF0.9285714285714286
aF0.8257575757575758
aF0.7024390243902439
aF0.782608695652174
aF0.7102272727272727
aF0.7741935483870968
aF0.6600985221674877
aF0.8387096774193549
aF0.8146167557932263
aF0.8494623655913979
aF0.7217741935483871
aF1.0
aF0.9052631578947369
aF0.987012987012987
aF0.6787878787878788
aF0.7341463414634146
aF0.6163265306122448
aF0.6759581881533101
aF0.8121693121693122
aF0.8441558441558441
aF0.6152482269503546
aF0.8560606060606061
aF0.8021390374331551
aF0.8336134453781513
aF0.7333333333333333
aF0.7111111111111111
aF0.96
aF0.5038251366120219
aF0.9051383399209486
aF0.8359788359788359
aF0.5647058823529412
aF0.5413533834586466
aF0.7564102564102564
aF0.6873563218390805
aF0.7236467236467237
aF0.9134199134199135
aF0.8166666666666667
aF0.5493468795355588
aF0.8369565217391305
aF0.6967741935483871
aF0.6984126984126984
aF0.6461538461538462
aF0.8853754940711462
aF0.6785206258890469
aF0.6671408250355618
aF0.8359788359788359
aF0.8571428571428571
aF0.8616600790513834
aF0.861904761904762
aF0.7159090909090909
aF0.6142460684551342
aF0.5920444033302498
aF0.5777777777777777
aF0.8142292490118577
aF0.7766666666666666
aF0.5166908563134979
aF0.9134199134199135
aF0.6587301587301587
aF0.9051383399209486
aF0.7
aF0.6909090909090909
aF0.9803921568627451
aaa(lp322
S'sub-0025917_ses-1_dwi_desikan.gpickle'
p323
a(lp324
F0.46440677966101696
aF0.819047619047619
aF0.8433333333333334
aF0.7016129032258065
aF0.5762411347517731
aF0.8181818181818182
aF0.658008658008658
aF0.6966666666666667
aF0.8315789473684211
aF0.7355072463768116
aF0.5227021040974529
aF0.7279411764705882
aF0.6847290640394089
aF0.5754985754985755
aF0.6014492753623188
aF0.8105263157894737
aF0.6391129032258065
aF0.574750830564784
aF0.8514492753623188
aF0.8787878787878788
aF0.8079710144927537
aF1.0
aF0.6342780026990553
aF0.5387755102040817
aF0.5757575757575758
aF0.6559139784946236
aF0.76
aF0.7966666666666666
aF0.6366366366366366
aF0.7509881422924901
aF0.7366666666666667
aF0.7433333333333333
aF0.8055555555555556
aF0.6785714285714286
aF0.7516339869281046
aF0.4855889724310777
aF0.7610837438423645
aF0.7268817204301076
aF0.6329268292682927
aF0.5892691951896393
aF0.7142857142857143
aF0.6333333333333333
aF0.6817204301075269
aF0.7655172413793103
aF0.7663817663817664
aF0.5876887340301974
aF0.6916666666666667
aF0.6992753623188406
aF0.6157894736842106
aF0.64
aF0.8184615384615385
aF0.680672268907563
aF0.7575757575757576
aF0.6923076923076923
aF0.8857142857142857
aF0.8221343873517787
aF0.9090909090909091
aF0.9209486166007905
aF0.6833333333333333
aF0.6573170731707317
aF0.5391120507399577
aF0.7748917748917749
aF0.7592592592592593
aF0.6234817813765182
aF0.7660098522167488
aF0.7217741935483871
aF0.7862068965517242
aF0.8095238095238095
aF0.8222222222222222
aF0.88
aaa(lp325
S'sub-0025917_ses-2_dwi_desikan.gpickle'
p326
a(lp327
F0.48336358136721114
aF0.8095238095238095
aF0.7608695652173914
aF0.6754032258064516
aF0.5144781144781144
aF0.7424242424242424
aF0.5588235294117647
aF0.6459770114942529
aF0.8142857142857143
aF0.6748768472906403
aF0.5383903792784459
aF0.6666666666666666
aF0.5760869565217391
aF0.6052631578947368
aF0.5108695652173914
aF0.7427536231884058
aF0.7063492063492064
aF0.7044534412955465
aF0.8105263157894737
aF1.0
aF0.7210526315789474
aF0.7727272727272727
aF0.6870554765291608
aF0.6161616161616161
aF0.6345514950166113
aF0.6387096774193548
aF0.7066666666666667
aF0.7192982456140351
aF0.5633672525439408
aF0.6781609195402298
aF0.6537634408602151
aF0.6888888888888889
aF0.8
aF0.7142857142857143
aF0.9485294117647058
aF0.4949874686716792
aF0.8344086021505376
aF0.7116402116402116
aF0.7094474153297683
aF0.5467571644042232
aF0.6428571428571429
aF0.6442687747035574
aF0.6012195121951219
aF0.7661290322580645
aF0.770935960591133
aF0.5797101449275363
aF0.5751633986928104
aF0.6933333333333334
aF0.5555555555555556
aF0.7047619047619048
aF0.8433048433048433
aF0.6229838709677419
aF0.8011363636363636
aF0.8602941176470589
aF0.8529411764705882
aF0.8128654970760234
aF0.7555555555555555
aF0.8430769230769231
aF0.7428571428571429
aF0.7243697478991596
aF0.5891472868217055
aF0.7509881422924901
aF0.7138461538461538
aF0.6217948717948718
aF0.7782258064516129
aF0.7840909090909091
aF0.8165322580645161
aF0.7857142857142857
aF0.7121212121212122
aF0.9458689458689459
aaa(lp328
S'sub-0025918_ses-1_dwi_desikan.gpickle'
p329
a(lp330
F0.47186932849364793
aF0.9090909090909091
aF0.7459677419354839
aF0.5453061224489796
aF0.5396078431372549
aF0.7142857142857143
aF0.6674876847290641
aF0.7948717948717948
aF0.922077922077922
aF0.7948717948717948
aF0.591025641025641
aF0.6833333333333333
aF0.7761904761904762
aF0.708994708994709
aF0.7426900584795322
aF0.8184615384615385
aF0.7486772486772487
aF0.6429587482219061
aF0.7540229885057471
aF0.945054945054945
aF0.8311688311688312
aF1.0
aF0.7266009852216748
aF0.6477732793522267
aF0.5909090909090909
aF0.620199146514936
aF0.8421052631578947
aF0.7701149425287356
aF0.5670675300647549
aF0.7619047619047619
aF0.7566137566137566
aF0.922077922077922
aF0.9560439560439561
aF0.6888888888888889
aF0.9428571428571428
aF0.502177068214804
aF0.6995967741935484
aF0.8004926108374384
aF0.6680161943319838
aF0.5346938775510204
aF0.696969696969697
aF0.5663865546218487
aF0.6992753623188406
aF0.7835497835497836
aF0.7509881422924901
aF0.5429951690821256
aF0.7192982456140351
aF0.728735632183908
aF0.6176470588235294
aF0.5889328063241107
aF0.7952380952380952
aF0.5917496443812233
aF0.6685606060606061
aF0.8461538461538461
aF0.9532163742690059
aF0.9177489177489178
aF0.8095238095238095
aF0.7635327635327636
aF0.6248548199767712
aF0.6035437430786268
aF0.5253699788583509
aF0.7566137566137566
aF0.796923076923077
aF0.6642958748221907
aF0.6956521739130435
aF0.7865612648221344
aF0.7766666666666666
aF1.0
aF0.7090909090909091
aF0.9019607843137255
aaa(lp331
S'sub-0025918_ses-2_dwi_desikan.gpickle'
p332
a(lp333
F0.47610405323653965
aF0.8972332015810277
aF0.7397504456327986
aF0.6009661835748792
aF0.563265306122449
aF0.7619047619047619
aF0.6774193548387096
aF0.8233333333333334
aF0.8972332015810277
aF0.8233333333333334
aF0.6246246246246246
aF0.7857142857142857
aF0.7402597402597403
aF0.7044334975369458
aF0.6619047619047619
aF0.8233333333333334
aF0.7023172905525846
aF0.7424242424242424
aF0.7537878787878788
aF0.9487179487179487
aF0.819047619047619
aF0.8791208791208791
aF0.7586206896551724
aF0.6941678520625889
aF0.6141414141414141
aF0.6705882352941176
aF0.8
aF0.7586206896551724
aF0.5551020408163265
aF0.717741935483871
aF0.6666666666666666
aF0.9090909090909091
aF0.7142857142857143
aF0.6388888888888888
aF0.9894736842105263
aF0.49292929292929294
aF0.7044334975369458
aF0.8575498575498576
aF0.636766334440753
aF0.564625850340136
aF0.7472527472527473
aF0.6742424242424242
aF0.7008547008547008
aF0.8095238095238095
aF0.7433333333333333
aF0.5596669750231268
aF0.7192982456140351
aF0.7139784946236559
aF0.5380116959064327
aF0.5844155844155844
aF0.7952380952380952
aF0.6705882352941176
aF0.6856060606060606
aF0.8333333333333334
aF0.9333333333333333
aF0.857707509881423
aF0.9230769230769231
aF0.7486772486772487
aF0.6109936575052854
aF0.5848484848484848
aF0.5507399577167019
aF0.7907692307692308
aF0.7512315270935961
aF0.6641025641025641
aF0.7662337662337663
aF0.7707509881422925
aF0.8484848484848485
aF0.75
aF0.7777777777777778
aF0.9818181818181818
aaa(lp334
S'sub-0025919_ses-1_dwi_desikan.gpickle'
p335
a(lp336
F0.5340501792114696
aF0.9242424242424242
aF0.8544973544973545
aF0.642512077294686
aF0.5692679975801573
aF0.9359605911330049
aF0.7466666666666667
aF0.8352941176470589
aF0.9526881720430107
aF0.8605042016806723
aF0.6811594202898551
aF0.9161290322580645
aF0.7883597883597884
aF0.7984126984126985
aF0.6952380952380952
aF0.8663101604278075
aF0.8225806451612904
aF0.7935897435897435
aF0.8689458689458689
aF1.0
aF0.9446640316205533
aF0.8827586206896552
aF0.7320044296788483
aF0.6440422322775264
aF0.6148148148148148
aF0.7082452431289641
aF0.8227513227513228
aF0.8603988603988604
aF0.6290471785383904
aF0.8746031746031746
aF0.7942942942942943
aF0.8890756302521008
aF0.9578947368421052
aF0.6944444444444444
aF0.8804597701149425
aF0.520673076923077
aF0.7505285412262156
aF0.8298850574712644
aF0.6817073170731708
aF0.5584699453551912
aF0.7090909090909091
aF0.76
aF0.7041251778093883
aF0.7526881720430108
aF0.707936507936508
aF0.5482174167153712
aF0.7947368421052632
aF0.6777777777777778
aF0.675
aF0.7105263157894737
aF0.8
aF0.7159663865546219
aF0.7283298097251586
aF0.8603988603988604
aF0.8325123152709359
aF0.828042328042328
aF0.8
aF0.832183908045977
aF0.6342383107088989
aF0.6829268292682927
aF0.598404255319149
aF0.8142857142857143
aF0.7591397849462366
aF0.6262626262626263
aF0.7402439024390244
aF0.6553846153846153
aF0.7323232323232324
aF1.0
aF0.8222222222222222
aF0.8866666666666667
aaa(lp337
S'sub-0025919_ses-2_dwi_desikan.gpickle'
p338
a(lp339
F0.55406195207481
aF0.873015873015873
aF0.8349753694581281
aF0.6567992599444958
aF0.5909090909090909
aF0.6813186813186813
aF0.695906432748538
aF0.7681365576102418
aF0.9187192118226601
aF0.8146167557932263
aF0.7131782945736435
aF0.7849462365591398
aF0.7379032258064516
aF0.6793650793650794
aF0.6900584795321637
aF0.8067226890756303
aF0.7955665024630542
aF0.8634920634920635
aF0.9
aF1.0
aF0.9789473684210527
aF0.7849462365591398
aF0.7894736842105263
aF0.7072463768115942
aF0.6864014801110083
aF0.7422402159244265
aF0.803076923076923
aF0.8733333333333333
aF0.6418439716312057
aF0.8538324420677362
aF0.7331118493909191
aF0.9605911330049262
aF0.8578947368421053
aF0.7777777777777778
aF0.8318318318318318
aF0.5
aF0.7448717948717949
aF0.8064516129032258
aF0.6541062801932367
aF0.5474576271186441
aF0.8181818181818182
aF0.6798029556650246
aF0.7355072463768116
aF0.6881720430107527
aF0.7835497835497836
aF0.564983164983165
aF0.6758893280632411
aF0.7192118226600985
aF0.6157894736842106
aF0.6428571428571429
aF0.8368421052631579
aF0.7237903225806451
aF0.7331118493909191
aF0.7253787878787878
aF0.8636363636363636
aF0.7376344086021506
aF0.7362637362637363
aF0.7682539682539683
aF0.6590136054421769
aF0.6343537414965986
aF0.5428571428571428
aF0.8529411764705882
aF0.7258064516129032
aF0.5942857142857143
aF0.7073170731707317
aF0.7753623188405797
aF0.6424489795918368
aF0.8
aF0.8363636363636363
aF0.8005698005698005
aaa(lp340
S'sub-0025920_ses-1_dwi_desikan.gpickle'
p341
a(lp342
F0.48757062146892655
aF0.8714285714285714
aF0.8575498575498576
aF0.6121951219512195
aF0.5069570477918935
aF0.7142857142857143
aF0.6195652173913043
aF0.73
aF0.8714285714285714
aF0.7865612648221344
aF0.5178571428571429
aF0.7509881422924901
aF0.7103448275862069
aF0.7037037037037037
aF0.6333333333333333
aF0.8263157894736842
aF0.7644927536231884
aF0.6066066066066066
aF0.6623655913978495
aF1.0
aF0.86
aF0.803030303030303
aF0.7116402116402116
aF0.5826086956521739
aF0.5750528541226215
aF0.6022727272727273
aF0.8404558404558404
aF0.7635467980295566
aF0.5485714285714286
aF0.6613756613756614
aF0.7644927536231884
aF0.8701298701298701
aF0.8
aF0.5818181818181818
aF0.8888888888888888
aF0.5828571428571429
aF0.853763440860215
aF0.8347578347578347
aF0.689608636977058
aF0.6308973172987974
aF0.6666666666666666
aF0.6411411411411412
aF0.7935606060606061
aF0.8387096774193549
aF0.8245967741935484
aF0.6395348837209303
aF0.7264367816091954
aF0.746031746031746
aF0.753968253968254
aF0.6825396825396826
aF0.8387096774193549
aF0.7058823529411765
aF0.7764705882352941
aF0.7264367816091954
aF1.0
aF0.922077922077922
aF0.8744588744588745
aF0.8458498023715415
aF0.7012820512820512
aF0.7076923076923077
aF0.593576965669989
aF0.8091168091168092
aF0.8366666666666667
aF0.6524390243902439
aF0.7350427350427351
aF0.8571428571428571
aF0.8623655913978494
aF0.8055555555555556
aF0.6703296703296703
aF0.9533333333333334
aaa(lp343
S'sub-0025920_ses-2_dwi_desikan.gpickle'
p344
a(lp345
F0.5192090395480226
aF0.9105263157894737
aF0.8201058201058201
aF0.6031372549019608
aF0.5564935064935065
aF0.7142857142857143
aF0.7445887445887446
aF0.6201201201201201
aF0.8484848484848485
aF0.6453781512605042
aF0.5542857142857143
aF0.7536231884057971
aF0.6748768472906403
aF0.7233333333333334
aF0.6014492753623188
aF0.9005847953216374
aF0.7749287749287749
aF0.6473429951690821
aF0.7290322580645161
aF1.0
aF0.8307692307692308
aF0.7573529411764706
aF0.6628205128205128
aF0.671247357293869
aF0.5867269984917044
aF0.6919540229885057
aF0.8233333333333334
aF0.7036290322580645
aF0.5976470588235294
aF0.7521367521367521
aF0.6577540106951871
aF0.8831168831168831
aF0.8
aF0.6944444444444444
aF0.8656126482213439
aF0.5841799709724238
aF0.8951612903225806
aF0.8695652173913043
aF0.6733111849390919
aF0.6480496453900709
aF0.6944444444444444
aF0.6538461538461539
aF0.8306595365418895
aF0.8951612903225806
aF0.8560606060606061
aF0.6627906976744186
aF0.719047619047619
aF0.7019704433497537
aF0.6363636363636364
aF0.6476190476190476
aF0.8560606060606061
aF0.7357357357357357
aF0.9012096774193549
aF0.7833333333333333
aF0.9285714285714286
aF0.8809523809523809
aF0.782051282051282
aF0.9032258064516129
aF0.7235772357723578
aF0.6898989898989899
aF0.6080808080808081
aF0.8092307692307692
aF0.8095238095238095
aF0.6333333333333333
aF0.7563218390804598
aF0.8911290322580645
aF0.8674242424242424
aF0.6666666666666666
aF0.7575757575757576
aF0.9894179894179894
aaatp346
Rp347
s.