(dp0
S'betweenness_centrality'
p1
ccollections
OrderedDict
p2
((lp3
(lp4
S'sub-0025864_ses-1_dwi_desikan.gpickle'
p5
a(lp6
F0.04760996115330414
aF0.007815136842594314
aF0.002004599975645223
aF0.011588721167714233
aF0.025282941527077517
aF0.0008974231281940066
aF0.0044311011214067915
aF0.013100956345999653
aF0.001616398105577511
aF0.011872739112973178
aF0.013528854854398698
aF0.0036785734957881077
aF0.00513248218220684
aF0.001992259160082671
aF0.0068361500970861595
aF0.0044174809284054945
aF0.002355298408438244
aF0.0012996874031799656
aF0.004842445746462941
aF0.0
aF0.002459299216795565
aF0.0014012355439305554
aF0.0021936436032334535
aF0.010689449193066117
aF0.010812349972201207
aF0.01596538260801883
aF0.004636045348641265
aF0.007642399732266118
aF0.024153738732217128
aF0.005562206891754801
aF0.00624540307841393
aF0.002960944290610867
aF0.0013304973531391463
aF0.00047923064396346933
aF0.0007580773493408775
aF0.028140751856614073
aF0.0072497188215333835
aF0.002045402556923599
aF0.011900707408564665
aF0.03270906828075572
aF0.0022101784122722074
aF0.008955320278600368
aF0.0028248847938923153
aF0.0015221489613104072
aF0.0028248847938923153
aF0.0179226809607358
aF0.0081782048415784
aF0.004600556990538053
aF0.005374311128218694
aF0.004918546258124398
aF0.002250256149011712
aF0.00857868690346879
aF0.008301686273128635
aF0.0027705703657429463
aF0.0005196652298274497
aF0.0017610858910892847
aF0.0003615342301288131
aF0.001727083775733062
aF0.012723392583640816
aF0.021106875420268255
aF0.027950409521811992
aF0.0018508390019468751
aF0.005979193762093051
aF0.02076824434359473
aF0.0015823084258376977
aF0.01096356918440797
aF0.012047540832274396
aF9.009451733909938e-05
aF0.00034930968434804754
aF0.001350583306299006
aaa(lp7
S'sub-0025864_ses-2_dwi_desikan.gpickle'
p8
a(lp9
F0.051866466700514646
aF0.0019649735431165765
aF0.0014230365573581303
aF0.010732643279170732
aF0.02349188475419273
aF0.0006808030117417812
aF0.006177456038125114
aF0.014595240234894622
aF0.0038457419054977707
aF0.014595240234894622
aF0.013579795126844667
aF0.0048337117612793625
aF0.00978771755439574
aF0.0031672848103676157
aF0.004686439045094118
aF0.008511903834764785
aF0.0085349907316859
aF0.002640047519791492
aF0.0021513281339292038
aF0.0
aF0.0019370004798267375
aF0.001953760249455611
aF0.0008967594902644047
aF0.011662789254006923
aF0.006879751828145993
aF0.024831936276088977
aF0.00471437904039588
aF0.007736959187856268
aF0.030470964782436025
aF0.004588228074912381
aF0.007655622605462724
aF0.0015050558640323053
aF4.537194246837695e-05
aF0.00073900356421807
aF0.0005700875819365517
aF0.04033732406165756
aF0.0070630354830261205
aF0.002105466062446057
aF0.013428105288985004
aF0.02467961803524851
aF0.0011920271464772804
aF0.00842920482391275
aF0.005597859447308837
aF0.0038804880956791674
aF0.0038809956074867744
aF0.019164412998011277
aF0.011467179775574769
aF0.009641000767279672
aF0.0027655155486751887
aF0.008171692534042697
aF0.0023350708841031256
aF0.0036017802004541357
aF0.006072299803754115
aF0.006318544801552575
aF0.00044880925337878984
aF0.00021666882737236058
aF0.0008453245154012419
aF0.0017715808813569993
aF0.017310695182881957
aF0.022301090269138405
aF0.023470333837048742
aF0.0014289549133072875
aF0.002894635234716764
aF0.03058409229578157
aF0.007371201098356185
aF0.010837302438215715
aF0.009549771459519124
aF0.00014178732021367796
aF0.0006216769052131265
aF0.0010531567821132034
aaa(lp10
S'sub-0025865_ses-1_dwi_desikan.gpickle'
p11
a(lp12
F0.05798502243917312
aF0.0023217635367472666
aF0.00030771917890707473
aF0.018792603656481832
aF0.02541129929050751
aF0.0033581660191157477
aF0.0021963293182644186
aF0.003593027202750675
aF0.0005309989101549205
aF0.004839475412114485
aF0.015278936952218618
aF0.007120993421195416
aF0.012415390255082988
aF0.007721890744631722
aF0.005712007924100029
aF0.0026275102631100706
aF0.0033432246120015225
aF0.006196380000197094
aF0.007004585187584672
aF0.0
aF0.0065878081918227995
aF0.004772185309098692
aF0.004067556019805734
aF0.01772586539749067
aF0.009267637499761726
aF0.014791847133558472
aF0.007896902504007292
aF0.012039534251503158
aF0.026807135732913438
aF0.004756602071698303
aF0.005611230771465753
aF0.00145200293218196
aF0.0
aF0.0008991413093909481
aF2.0297974262168634e-05
aF0.057246366730653156
aF0.0006912841704443286
aF0.0
aF0.012972570344807779
aF0.02513024619323854
aF0.004840644439779732
aF0.00944336539714388
aF0.0028473285708388897
aF0.0009166738426643837
aF0.001407177671098924
aF0.016233985853954507
aF0.003795870089877548
aF0.014490481497342942
aF0.008086058212868605
aF0.011169662264492314
aF0.001407177671098924
aF0.022634614399659605
aF0.009447840121100663
aF0.0020981400713765367
aF0.0009851194762601602
aF0.0006845461081755487
aF0.004496565969187843
aF0.005466647231053311
aF0.021405110374179963
aF0.022980368816049895
aF0.017636725833754068
aF0.0014489315488807179
aF0.006609742501916959
aF0.02380761412016363
aF0.0049006430516002255
aF0.004460688932766145
aF0.004673262774773775
aF0.0
aF0.0005970526111191073
aF0.0002641744550505544
aaa(lp13
S'sub-0025865_ses-2_dwi_desikan.gpickle'
p14
a(lp15
F0.04770634993711616
aF0.0010696547323192818
aF0.0009811857272291752
aF0.02207267138190087
aF0.032780539178844034
aF0.003003392323363886
aF0.0031400996112492235
aF0.004014565499825425
aF0.00045551490352124753
aF0.004014565499825425
aF0.01714465784722417
aF0.0069927393300105705
aF0.015484475916384197
aF0.005197851828861682
aF0.006448441333083559
aF0.0025403732925200193
aF0.0029886125396586085
aF0.006685619788555328
aF0.0015294946502104872
aF0.00016135642734108204
aF0.004722660079725245
aF0.0033515699594329784
aF0.0035421840735040512
aF0.020451972662975715
aF0.014379088133001306
aF0.007839808265180558
aF0.0046800932307207235
aF0.007238984596702332
aF0.045010838590216984
aF0.006190161401428498
aF0.00518678729037127
aF0.00035482626803654265
aF0.0013584820911120995
aF0.0005782677218099212
aF0.0005897532293998755
aF0.07250946807093418
aF0.0009083409506555508
aF0.0006398572181676964
aF0.01208181501185341
aF0.03320249996674205
aF0.0054616580665312955
aF0.007043234952323199
aF0.0020495572901895695
aF0.0010565017128540174
aF0.0017628590495271346
aF0.02009558022748913
aF0.003625246934479181
aF0.01423315121373204
aF0.01162944886846337
aF0.009246957906631239
aF0.0017628590495271346
aF0.023405068840365712
aF0.012138742204756317
aF0.0038671954233406
aF0.0
aF0.0006398572181676964
aF5.014793641241663e-05
aF0.004621754682416619
aF0.021561161733484446
aF0.01879409176119283
aF0.02070009515633409
aF0.002289442855385268
aF0.006144157533426574
aF0.02057660933030235
aF0.002270362173213551
aF0.004237269485277087
aF0.004680087989923437
aF0.0005271381931723488
aF0.0005360331501756857
aF0.0004955663004017719
aaa(lp16
S'sub-0025866_ses-1_dwi_desikan.gpickle'
p17
a(lp18
F0.048998762591281345
aF0.006110696587571406
aF0.003982711577449297
aF0.008428304961281623
aF0.015329732490436279
aF0.0011407257799848731
aF0.01580856275444309
aF0.009125715875333465
aF0.007922864760010594
aF0.009625140355124193
aF0.009715180898659909
aF0.005726914083945826
aF0.0067698364857394465
aF0.004119083466617053
aF0.0043225287393944605
aF0.009855685424506334
aF0.0050186494684844206
aF0.0009272856391460022
aF0.0010873956700127884
aF4.4993842947807145e-05
aF0.0013856454505711921
aF0.0027948355531380474
aF0.0029054425927322147
aF0.0076191749194629834
aF0.005635923292417726
aF0.01160243338942364
aF0.0066700338746837435
aF0.0038933592748496347
aF0.025015760535732557
aF0.008574059613664904
aF0.012191127503349065
aF0.003213843550206416
aF0.00022429261559696342
aF0.0010479172461570975
aF0.0034021595670182185
aF0.04011378951265991
aF0.0021575139233483056
aF0.0030606069197558587
aF0.008827218165421587
aF0.025772250508785042
aF0.0013286936343357464
aF0.010889154963655168
aF0.006122670995367377
aF0.0049151140292510295
aF0.003380904041105428
aF0.017146988225458865
aF0.005613232810995649
aF0.009227802859745974
aF0.006309543123755509
aF0.01843325033521545
aF0.0014887454940188552
aF0.003074857252502462
aF0.004469125269970839
aF0.00454295131255437
aF0.00016893742080052564
aF0.0033211792858108607
aF0.004123258595224756
aF0.002687408363417796
aF0.01709535844526946
aF0.014958181379118895
aF0.022236150026542036
aF0.002555855798480875
aF0.00549944296947034
aF0.024138576466663463
aF0.0041588803528198525
aF0.009197093221534572
aF0.003279088012390402
aF0.0002100840336134454
aF0.0011160370805005212
aF0.000803121286378686
aaa(lp19
S'sub-0025866_ses-2_dwi_desikan.gpickle'
p20
a(lp21
F0.051677655911610006
aF0.0045907501492034875
aF0.0027969827599078055
aF0.013864313828432022
aF0.015876997342267624
aF0.0016736605980742186
aF0.01160666045818387
aF0.005481443710903978
aF0.003192709663481504
aF0.01270855025149405
aF0.015359894119873466
aF0.004011736343102962
aF0.008684381918588247
aF0.0077156988275471575
aF0.007954320205841194
aF0.009624544774503183
aF0.004943980049425688
aF0.0006239047219602543
aF0.0011815925074146788
aF0.0
aF0.0016221351197384867
aF0.0019111290266119617
aF0.003288689094067201
aF0.0057818438445791315
aF0.009644433830552333
aF0.015507768751728665
aF0.004900755033127587
aF0.003999161649912138
aF0.030193055978964448
aF0.006910084241406364
aF0.007547522336202919
aF0.005784288771891394
aF0.00024154589371980676
aF0.0006712575960001281
aF0.0033188900161913535
aF0.03706779903776109
aF0.005642042101353313
aF0.00913833292059301
aF0.01145916701330874
aF0.022825652759178985
aF0.0009540997636192464
aF0.009713965177716662
aF0.013121240467876827
aF0.003729066716635865
aF0.009901924391244522
aF0.018185982431979195
aF0.007932255940955306
aF0.010066537450338994
aF0.006179175394245273
aF0.009608352392709733
aF0.002419811970306135
aF0.003240971385470671
aF0.0016349584724561965
aF0.005667945089678684
aF0.00017361747941842137
aF0.0008164340518588845
aF0.003244221274151781
aF0.002564290898796024
aF0.006089172023455158
aF0.015400719690810003
aF0.018219315837091413
aF0.001986063387966032
aF0.002246579397984933
aF0.03432397452958444
aF0.006581422992835504
aF0.013981583045065114
aF0.003729066716635865
aF0.00037430245230756734
aF0.0003059385462804496
aF0.00012813953490673952
aaa(lp22
S'sub-0025867_ses-1_dwi_desikan.gpickle'
p23
a(lp24
F0.06977578823784192
aF0.010483528657560403
aF0.0007960990672244146
aF0.008795799941026082
aF0.015623042206911006
aF0.00142060785268156
aF0.005986101962217633
aF0.0018002387422977753
aF0.0035446226304722585
aF0.007267882351934806
aF0.021813458692985014
aF0.004768188775034974
aF0.01005849901709263
aF0.0045363893191545535
aF0.011189348310615136
aF0.0016480440137439556
aF0.0063814527980790865
aF0.005909549484482487
aF0.0020107633481468135
aF0.00018455779325344542
aF0.0007255419819358438
aF0.004927841411849713
aF0.002678363700740591
aF0.007599414409143693
aF0.02111110726030168
aF0.023312858239926057
aF0.006233456623079837
aF0.005330871430263939
aF0.033728775266631664
aF0.006277671009243134
aF0.02331538948652199
aF0.0018633741761216122
aF0.00011417610522469857
aF0.0004446094997704307
aF0.0062604409644211306
aF0.040082237583086745
aF0.0049874752403527185
aF0.001494326718241865
aF0.01489696274583654
aF0.015739234500438484
aF0.0017628250614061122
aF0.005212351287302401
aF0.003502390149879917
aF0.004964197536033705
aF0.003502390149879917
aF0.03422462217365817
aF0.012718219881136228
aF0.005194521597066514
aF0.003555622990514613
aF0.009470706956005
aF0.003208327995194715
aF0.007839374810601187
aF0.008958836946932058
aF0.007619854478579207
aF0.00024158386728843453
aF0.0019245225570002082
aF0.00200854738594394
aF0.009070816652579874
aF0.00761987019287756
aF0.01650671462943314
aF0.022783892252636707
aF0.0011750113479144946
aF0.009346863681786652
aF0.027810500089301287
aF0.01126688496186597
aF0.004135773629398148
aF0.003286143787680326
aF0.00022663468955029056
aF0.0010744725873497124
aF0.0021545151062325285
aaa(lp25
S'sub-0025867_ses-2_dwi_desikan.gpickle'
p26
a(lp27
F0.06249876532219876
aF0.005161702704406936
aF0.0012978056531674671
aF0.01475571288572689
aF0.021338792186353404
aF0.0007824478732407121
aF0.007846576024434237
aF0.0024281230175516523
aF0.003941826363290241
aF0.004630653162167833
aF0.01939424142443158
aF0.0062025206641749715
aF0.00949422806173125
aF0.0031733557803966792
aF0.010374707924122916
aF0.0020698122602340586
aF0.014532981057483966
aF0.0028503074287032446
aF0.0070846541593669096
aF3.875067813686739e-05
aF0.0005084536094766273
aF0.0021626488083584905
aF0.004153768161955164
aF0.018702000272507426
aF0.01407686958215766
aF0.025799443386765687
aF0.003577289634506403
aF0.008430145254383679
aF0.03803789717081496
aF0.01315436909153936
aF0.014890376199270215
aF0.004607110559057117
aF0.00012011860426855717
aF0.000922594792501586
aF0.006936959264672289
aF0.03696210389032696
aF0.0032579486896335648
aF0.0006245778534786256
aF0.008091325610679347
aF0.011345738714194406
aF0.002924418544284971
aF0.006425279322421634
aF0.010236088712495277
aF0.007127783472199647
aF0.007491354793032686
aF0.01925175845949154
aF0.0030270472856547344
aF0.006494154089397027
aF0.0031184320094518347
aF0.010985062506428955
aF0.004712165088251792
aF0.003839162716612134
aF0.004545904568202019
aF0.004523065447142877
aF2.6494197984304323e-05
aF0.0021760351169617964
aF0.004107035289867694
aF0.007837108582608299
aF0.0035459496273924055
aF0.017005701969911868
aF0.02198451817050963
aF0.0031840618880885764
aF0.0034519517496891896
aF0.027610891158846886
aF0.00833119023472578
aF0.0034543941602974662
aF0.003699359805507831
aF0.0002849704475091472
aF0.0002792036040117881
aF0.0005593269416919923
aaa(lp28
S'sub-0025868_ses-1_dwi_desikan.gpickle'
p29
a(lp30
F0.04450265345021286
aF0.0005126036587598194
aF0.002652977131919105
aF0.016518431154483502
aF0.020265546939687757
aF0.0008587551046379322
aF0.0041152087440163585
aF0.00930562406647945
aF0.0026747441763930666
aF0.00930562406647945
aF0.02479594351210664
aF0.0048507460137138724
aF0.009734212099894552
aF0.015439547732634238
aF0.015027947229973327
aF0.004841906147546644
aF0.009864827728912857
aF0.0031575912815782186
aF0.00679306009412255
aF0.0
aF0.0016673601531252682
aF0.0012128483331014927
aF0.002231718968852364
aF0.006828823730218683
aF0.010101860554755378
aF0.01823202475295861
aF0.003863294712191233
aF0.005100746569869354
aF0.03144523810062609
aF0.005453584300154062
aF0.005797088623874623
aF0.0011818157731891285
aF0.0
aF0.0001932038800174801
aF0.0018688339986343532
aF0.04264857422725921
aF0.002457464943382636
aF0.004508617355678505
aF0.025155503115275184
aF0.020580770472719192
aF0.002247595469553315
aF0.0035477046466449178
aF0.008324621430323274
aF0.0014301114307021514
aF0.0025795530036153464
aF0.02644030672988885
aF0.011932268419646943
aF0.009653394975906546
aF0.008757100637670148
aF0.006836493989339874
aF0.0013857210465317976
aF0.012444827898694225
aF0.008304960442063754
aF0.011134039526872993
aF0.00013230995723097422
aF0.0007195304756828355
aF0.000591202411993194
aF0.0069058547708948335
aF0.008560068131689302
aF0.02157517159304051
aF0.021262964668085735
aF0.0011804214613949798
aF0.0029972374881863024
aF0.05107391748052977
aF0.00393359747672416
aF0.009125877335350202
aF0.00034099000011804853
aF0.0
aF0.0003374431763178566
aF0.0003098377436896425
aaa(lp31
S'sub-0025868_ses-2_dwi_desikan.gpickle'
p32
a(lp33
F0.035287019466500376
aF0.0007697644531263219
aF0.0016550303814419263
aF0.019975318890383155
aF0.021305010433267223
aF0.0016229452188574844
aF0.0032969542344143325
aF0.008910680165779637
aF0.002055030610967132
aF0.004961574931139881
aF0.021189995844907297
aF0.009527487505645254
aF0.012555655507051483
aF0.007973781846551694
aF0.01583649049816717
aF0.0034416112022527747
aF0.0074192809293629385
aF0.005888776640045692
aF0.006900543644135599
aF0.0
aF0.005501616683530301
aF0.0031491497799791437
aF0.001645372789161236
aF0.013362755076865586
aF0.025564674876327517
aF0.027552510351750267
aF0.006592346418900248
aF0.008680705996567561
aF0.03312417249592477
aF0.005702154426344722
aF0.0047250988057704005
aF0.0010477622397259822
aF0.00016238379409734907
aF0.000955584762624741
aF0.0008167685410537772
aF0.05985840665219004
aF0.008437787831658241
aF0.0010800162469744592
aF0.010584499771420577
aF0.02333743067311407
aF0.001331651930922559
aF0.008635299120068617
aF0.005095477618125289
aF0.0013143896016041255
aF0.002039619247269477
aF0.034779689548200036
aF0.006790863804459453
aF0.007118538285096059
aF0.006027891762111429
aF0.011100711886429155
aF0.0012022932287545486
aF0.017986902820880668
aF0.008836351894346221
aF0.006420200938096327
aF5.837873901923718e-05
aF0.0007728377396447981
aF0.0024518451462568966
aF0.0020296310293060897
aF0.010964074199634166
aF0.02096576878627045
aF0.03340395634044113
aF0.0013615838825674423
aF0.0035250261863788656
aF0.01866911368539058
aF0.004186275677140032
aF0.004118845498906554
aF0.005428110143918301
aF0.00029341849461201545
aF0.0005857550614583863
aF0.0007504093183017887
aaa(lp34
S'sub-0025869_ses-1_dwi_desikan.gpickle'
p35
a(lp36
F0.05319049425669621
aF0.007382252677442099
aF0.0008874083766892551
aF0.00992057470042699
aF0.0171619226873652
aF0.0008325423297541867
aF0.003318430191878486
aF0.010922038160644723
aF0.0060974250215809975
aF0.010922038160644723
aF0.027332629038610345
aF0.0005094267228437101
aF0.011240338922146747
aF0.004043546202701098
aF0.007316690636314151
aF0.005581217357001542
aF0.003069811580057249
aF0.002600563560902666
aF0.001912965577265106
aF0.00013093571089659552
aF0.0018404223762428923
aF0.0011843650213792026
aF0.003746556983684492
aF0.014280637785034259
aF0.007870959813268437
aF0.014284085544677777
aF0.0055924419025055235
aF0.002647462758055839
aF0.014398071020612064
aF0.008864090124758294
aF0.01940717372743583
aF0.002558207654254219
aF0.00016706794200400336
aF0.0007166685382472482
aF0.0001559976542601918
aF0.04636540428076584
aF0.005603214052974334
aF0.0006947915459273967
aF0.005322289595435543
aF0.020612480718927323
aF0.001922763839999771
aF0.005863649364572321
aF0.01270752510494296
aF0.005035301123371329
aF0.011595582476599166
aF0.02702214154838928
aF0.016149329582127014
aF0.009449811380328884
aF0.0031420691537173344
aF0.007604795849753644
aF0.01008955610573205
aF0.0039720205740520495
aF0.006886548193969893
aF0.007420327020238712
aF0.0005416483677353242
aF0.002802175580225167
aF0.0011046187811489968
aF0.0034330480543978284
aF0.015254893346687774
aF0.030531687565910254
aF0.02826813282945297
aF0.004393914250265847
aF0.004393914250265847
aF0.010843428053453084
aF0.005650398683260398
aF0.007498371896786895
aF0.0037961065568378875
aF0.00127187424158663
aF0.0010443333556068742
aF2.5073968206208314e-05
aaa(lp37
S'sub-0025869_ses-2_dwi_desikan.gpickle'
p38
a(lp39
F0.04531340733551648
aF0.0020128216004511442
aF6.618207923901826e-05
aF0.007089689360472117
aF0.027025818521141318
aF0.0015981014417526197
aF0.003890893043218285
aF0.007409971454734046
aF0.0017691419671809145
aF0.008226988440554563
aF0.019219069304766755
aF0.0018192318599803308
aF0.014120660462506566
aF0.006773885902879751
aF0.009938570564433749
aF0.005192095934508779
aF0.004777285414314766
aF0.00250986990367907
aF0.0028239973651897838
aF0.0002009653224486984
aF0.0019412536517928985
aF0.001819756223042535
aF0.00171914893479699
aF0.02294403597120155
aF0.004893497696800343
aF0.013729416027500791
aF0.00922510258512001
aF0.005910109929886818
aF0.022049699405876307
aF0.0070326700033994435
aF0.014119250877653557
aF0.0036918840813646037
aF0.0002554061189172449
aF0.00023079423654871224
aF0.00010616118367398196
aF0.04805354844724938
aF0.002028264577988155
aF0.0008656915184790839
aF0.004701394080508833
aF0.016871965294194474
aF0.0007931790241756282
aF0.005172709382488819
aF0.006957356982010767
aF0.002147576814338947
aF0.006346925064074418
aF0.03609148965162315
aF0.005390297844731353
aF0.014954801911345694
aF0.0035916005209942156
aF0.007042713276959239
aF0.004854696050983591
aF0.0035417909339947582
aF0.010059923571094325
aF0.0060907613133941085
aF0.0002435756911460236
aF0.00591558527497846
aF0.0009500958104615533
aF0.01343624730508957
aF0.01604470078430178
aF0.031145993026379364
aF0.025501554168205674
aF0.00739052842396693
aF0.004515134483701377
aF0.020353866882340418
aF0.00918463156324398
aF0.008504782856071046
aF0.005089628901142159
aF0.0007978437480356198
aF0.00029601212465662585
aF0.0004208423936242416
aaa(lp40
S'sub-0025870_ses-1_dwi_desikan.gpickle'
p41
a(lp42
F0.049806202190441254
aF0.00199624938795785
aF0.003362419240418278
aF0.008479675336556513
aF0.026812985700786135
aF0.0014119095156418188
aF0.004949759750455777
aF0.008975449368619099
aF0.0009032507628370055
aF0.0029102462472287965
aF0.016746158107080383
aF0.005086741230231545
aF0.010810824317173812
aF0.004187399109598407
aF0.0057449138672278285
aF0.0026890790988170665
aF0.004093653415609154
aF0.0059459524557877435
aF0.001373624387020341
aF0.00034803556139151065
aF0.00033497372641268176
aF0.0035574992444170296
aF0.0036017078165450456
aF0.012346405301383069
aF0.007963345940360456
aF0.02084050157419655
aF0.0017787374078125824
aF0.004078132976562872
aF0.03230184068197976
aF0.0067717926489062824
aF0.007800573486985592
aF0.0050735399034041555
aF0.00011265375715503593
aF0.0001855103736245209
aF0.0003840545857418974
aF0.039884671006285774
aF0.005623475390867726
aF0.0025166384572963075
aF0.004041372899554216
aF0.02268951078341186
aF0.0005785287800176619
aF0.009770152792042946
aF0.007762870766779019
aF0.006286971764520621
aF0.004551544807666367
aF0.01852602178089026
aF0.003768722820453513
aF0.007854078384356861
aF0.004697320204115746
aF0.011024012418507369
aF0.0034541003094886633
aF0.009251016912732864
aF0.003935073429137912
aF0.0021279352997754597
aF0.00010901206177270566
aF0.0016585088200491572
aF0.002181034108089035
aF0.0018709588078050093
aF0.007825947237156263
aF0.017379516603053483
aF0.03622728943214862
aF0.00637177933893976
aF0.003118273051552519
aF0.03761298501897564
aF0.00929513215378718
aF0.009989453914615998
aF0.003543715294983609
aF0.0003362944955016566
aF0.00029588910663079455
aF0.00021079545771135962
aaa(lp43
S'sub-0025870_ses-2_dwi_desikan.gpickle'
p44
a(lp45
F0.051394035952728526
aF0.0025545655427266206
aF0.001989059541921094
aF0.01475814234489088
aF0.030465036153550607
aF0.0011778191107211717
aF0.007282770993504452
aF0.005101193943899568
aF0.001095442399790226
aF0.0024974288483985375
aF0.022349215060518245
aF0.005242990645944466
aF0.012024073593653303
aF0.005999323500148649
aF0.01385847695058789
aF0.0019040867626535466
aF0.005618643682543591
aF0.010830339668166029
aF0.0018371922436234362
aF0.0001573491004813406
aF0.0015112473901766163
aF0.004215003740987948
aF0.0023502596927115066
aF0.013329217441053705
aF0.011033509697936936
aF0.028399677652522843
aF0.004430784836288061
aF0.006148810660656879
aF0.03131885886345086
aF0.008875247754455712
aF0.01037952323288551
aF0.0019265979741295276
aF0.0003378797064375484
aF0.0002909560275959648
aF0.00016852500950019473
aF0.03538085372870129
aF0.0018487567207634008
aF0.001989059541921094
aF0.006263287507060913
aF0.02269889834300016
aF0.0008091033327982327
aF0.006447632616876461
aF0.006308233683066675
aF0.005523610292236344
aF0.003424058137580625
aF0.017142074463164163
aF0.0023106048237669908
aF0.008770344194259077
aF0.006230297756744362
aF0.01455262545236297
aF0.003665328597558773
aF0.005877981375022425
aF0.005962999513650214
aF0.006734055687765885
aF0.00011906920286640462
aF0.0020573115433394303
aF0.0038035585084989216
aF0.0036378022459358857
aF0.007637183966441932
aF0.010251506528192551
aF0.021589315810048082
aF0.007000066385034852
aF0.004625032345928559
aF0.024731448321733265
aF0.006175294693726061
aF0.010204073085799455
aF0.0025243187913412068
aF0.0002502359639507977
aF0.00046343348786872976
aF7.75815854210161e-05
aaa(lp46
S'sub-0025871_ses-1_dwi_desikan.gpickle'
p47
a(lp48
F0.06504820120113886
aF0.0009557159388110337
aF0.0013403588804698384
aF0.017466452899413634
aF0.04678249674336193
aF0.0010786722163780525
aF0.004077334266032076
aF0.004646549723306369
aF0.0005474501001893017
aF0.004646549723306369
aF0.021418917208093812
aF0.002895865196279185
aF0.011847221128170935
aF0.008045788966401454
aF0.01451340731809527
aF0.0029543720932870138
aF0.00884557093118366
aF0.006069168507778784
aF0.009393328201551511
aF6.557807069316022e-05
aF0.0026467070147141985
aF0.0015903295567743078
aF0.0026112399280489467
aF0.007020533410884963
aF0.011563674766259396
aF0.01134215708377041
aF0.0015268253480243815
aF0.008153196457448168
aF0.021817994534353652
aF0.005128202828284616
aF0.005160367701717863
aF0.00019632780639672396
aF0.0003556116636917543
aF0.00046466544457045
aF0.0008669231206275223
aF0.06171520978948554
aF0.019500109336620705
aF0.0009641897240075127
aF0.01357598185418213
aF0.0190837927159308
aF0.005743968895952482
aF0.003888281459674826
aF0.011227423590414525
aF0.002245312954891732
aF0.0035957377143516333
aF0.05550707854772434
aF0.0011632668677836093
aF0.014611490736210759
aF0.0023598788696499724
aF0.014385003909353697
aF0.002383191714616052
aF0.0147267865805658
aF0.007446494552189575
aF0.002017095828629344
aF0.0
aF0.005906436226589429
aF0.00046460916483953503
aF0.001287956340404284
aF0.003841887267876986
aF0.017050095093085672
aF0.01915765436811028
aF0.0016558380929382452
aF0.015542619156030038
aF0.02663871339196243
aF0.002812626054705847
aF0.003826230299002825
aF0.004541032998623309
aF0.0008466395662687225
aF0.0004496592731886849
aF0.00024073710338444977
aaa(lp49
S'sub-0025871_ses-2_dwi_desikan.gpickle'
p50
a(lp51
F0.042915787392199034
aF0.002251682322225778
aF0.0015026663363142756
aF0.01814265800998466
aF0.0289407919271107
aF0.0007695739412015191
aF0.004098574261456154
aF0.006281431861912469
aF0.0017257715261717098
aF0.006281431861912469
aF0.027926467654385063
aF0.0037512143614355435
aF0.015125887923167337
aF0.010609795811045373
aF0.014700273538665614
aF0.002897767390556057
aF0.004632077557511197
aF0.01423684537452729
aF0.002481964641001823
aF0.0
aF0.006167011134885707
aF0.001166996447723065
aF0.0023931978531662687
aF0.011261854651601368
aF0.014727151563244693
aF0.008445461357356394
aF0.0018490610384017583
aF0.015156484278886492
aF0.031153307456596946
aF0.0057048963401669815
aF0.005650979312958037
aF0.00029974011688706605
aF0.0
aF0.0009596835194849336
aF0.0012993894022050065
aF0.05734541496616987
aF0.013779071095249285
aF0.0010456732888199372
aF0.013011650730548928
aF0.025609501616395195
aF0.005974215759822438
aF0.007905830531375885
aF0.007245068544754562
aF0.002040240447034943
aF0.0025063325515343325
aF0.04301251440398015
aF0.0009860061545847836
aF0.01015335605960773
aF0.0036873089191150604
aF0.01082031734489287
aF0.0015238346890000252
aF0.012950822807007921
aF0.005166815487937046
aF0.001403957733063036
aF0.00019688794310771245
aF0.0005864189969801524
aF0.0005070309015481907
aF0.0010683959633914783
aF0.0013690088827681638
aF0.017718758776885078
aF0.036160285570521894
aF0.0022241002048162713
aF0.007775863124242164
aF0.02821321271761364
aF0.004453892090185767
aF0.013465450402369156
aF0.005348342376065406
aF0.0
aF0.00033678647715055116
aF2.5073968206208314e-05
aaa(lp52
S'sub-0025872_ses-1_dwi_desikan.gpickle'
p53
a(lp54
F0.041821580095662024
aF0.00016503920058536618
aF0.002546667939059386
aF0.019779913373635296
aF0.0208262102783069
aF0.0012219657684045485
aF0.015807597516783782
aF0.006927061034479528
aF0.0036395722244110056
aF0.0032986443391394707
aF0.01592220055016344
aF0.009888020264680282
aF0.009109888950627431
aF0.004034763901653402
aF0.010941176159795013
aF0.001513067063631049
aF0.006846030330653296
aF0.005283165265104808
aF0.004756758480636191
aF0.00014138319764918228
aF0.0012017529446674531
aF0.0013533475214715291
aF0.006532635719204677
aF0.011040314523163302
aF0.014357002724256222
aF0.01089415883636374
aF0.0029657305037923513
aF0.005009189990154844
aF0.037584186104832815
aF0.005528862535560415
aF0.007483996952709059
aF0.00016503920058536618
aF0.0
aF0.00030656092037166207
aF0.0003436745891329017
aF0.03588726711561976
aF0.01227942005101383
aF0.002624152547809111
aF0.01117517563921239
aF0.021448651833000078
aF0.0015084534022321734
aF0.01547460911852231
aF0.007992992317886586
aF0.004383544811606724
aF0.004434110423483299
aF0.019348470386016114
aF0.01452349123975298
aF0.0076342501210581075
aF0.0024055234338652676
aF0.007380450175940952
aF0.0018814124682409396
aF0.013666837393568216
aF0.0009033405968266143
aF0.005916141463149234
aF0.00019615586036527815
aF0.0010334713759582567
aF0.0020368629573711723
aF0.001564329660660424
aF0.004131380645839225
aF0.0063817596092199105
aF0.019105882203400586
aF0.0017302007631385934
aF0.008473776254760774
aF0.023530691873790026
aF0.0027863527481620434
aF0.006750649747480815
aF0.0015208179841497134
aF0.0
aF0.0003702515410804864
aF0.00038426502477161717
aaa(lp55
S'sub-0025872_ses-2_dwi_desikan.gpickle'
p56
a(lp57
F0.04723894631678498
aF0.0006724986794406779
aF0.004187758882208066
aF0.030005039755167388
aF0.026104597887161993
aF0.0008452050870276743
aF0.0027193986286995564
aF0.005873744462976594
aF0.002489713427335571
aF0.0036868365529466323
aF0.022601506416374508
aF0.008254753997292585
aF0.00894072321512859
aF0.006045130235506084
aF0.009217441571734927
aF0.0016242529627574721
aF0.0027489836446129047
aF0.006853997813454723
aF0.0020851446729650987
aF0.0003212642302067749
aF0.0011533979263476646
aF0.001765302220338481
aF0.010951686847608779
aF0.01710693022557209
aF0.020296246695311736
aF0.023082303079607985
aF0.0013285307893240183
aF0.005090985104871139
aF0.0448625692050197
aF0.00534588805611034
aF0.006113725351169974
aF0.0006724986794406779
aF0.0
aF0.00035913160080156947
aF0.0003175533958374322
aF0.032224198957427896
aF0.008480553939875606
aF0.0026875152193909947
aF0.00899429667133307
aF0.01100553532558405
aF0.0008906821728410514
aF0.005706002431865274
aF0.0032630683291680713
aF0.0037053997317223297
aF0.002179124969460417
aF0.016021765428705717
aF0.014289383806131317
aF0.007113095533251774
aF0.004230618699624683
aF0.009576008674192277
aF0.0011999413315990028
aF0.009441274161733518
aF0.0005176088457096607
aF0.0040320392282555155
aF2.0297974262168634e-05
aF0.0008971045056632264
aF0.0037053997317223297
aF0.002888949842767882
aF0.006416891393881098
aF0.006899450061591552
aF0.016273225185052118
aF0.0012192887364771727
aF0.007659361287136448
aF0.020833129482665438
aF0.0038426742162582955
aF0.0025741822205890565
aF0.003399041283717501
aF0.0
aF0.0002561568316796239
aF0.0003014860692176968
aaa(lp58
S'sub-0025873_ses-1_dwi_desikan.gpickle'
p59
a(lp60
F0.04930058218297893
aF0.004625141534571186
aF0.0011711861902193115
aF0.015884820435843987
aF0.033090674572688834
aF0.005636422810740789
aF0.004379481605179775
aF0.007293186512159023
aF0.001453439775174856
aF0.007293186512159023
aF0.02463479821334004
aF0.0012689973923701947
aF0.017270324127245985
aF0.003158437096511613
aF0.01539937963860019
aF0.007822538926977093
aF0.005374732640274282
aF0.005295269843949943
aF0.0023921982500625136
aF0.0
aF0.004944104006180369
aF0.0011189894619988551
aF0.001296307094383531
aF0.015415857736718773
aF0.01735243375329287
aF0.023231318140979534
aF0.003605895815368946
aF0.018582215928687258
aF0.013523163889188042
aF0.00208457595052038
aF0.011692896824727688
aF0.0004691163351842503
aF0.000319693094629156
aF0.0004896881290673209
aF0.004356204144613079
aF0.057978245233070734
aF0.013194530986947417
aF0.0015299092620081867
aF0.02184056020771776
aF0.033902922205120915
aF0.0013177612257157854
aF0.007879461829795329
aF0.006132610830272914
aF0.0019416141661091756
aF0.0030788145452154223
aF0.032658969557660504
aF0.005499718787490658
aF0.016988670372429782
aF0.009126598340879921
aF0.0035009616669000447
aF0.0021382025483899433
aF0.009916264251291636
aF0.019030043775630247
aF0.0028959610149720386
aF0.0
aF0.006942575386753378
aF0.002607351268062212
aF0.0023499671272935794
aF0.011601773054040958
aF0.03439066960839352
aF0.023515063259936873
aF0.009163742485666714
aF0.012317953365295934
aF0.038077408318561184
aF0.0019416141661091756
aF0.003933970133413924
aF0.0006680585562954173
aF0.0012540523431326094
aF0.00047853820592610536
aF0.00043598385842130694
aaa(lp61
S'sub-0025873_ses-2_dwi_desikan.gpickle'
p62
a(lp63
F0.07270046255957072
aF0.001567727459161921
aF0.00284427515110577
aF0.006081017670257976
aF0.03024142866357709
aF0.00597711966975408
aF0.010987425037824277
aF0.006136960250466727
aF0.0010112975359734533
aF0.0038990350876225515
aF0.01785496108339921
aF0.002004893509540977
aF0.007660020346057021
aF0.006269900547513154
aF0.007922438437313866
aF0.0035871810492590053
aF0.00884448854808575
aF0.005530394896470154
aF0.0008321520830945087
aF0.00027519605524720613
aF0.000498694332626142
aF0.0007691308283704728
aF0.0028359673123098763
aF0.009173070057413977
aF0.011362631817891695
aF0.025190677129320268
aF0.005013312350428901
aF0.006098231492515577
aF0.00853671112986997
aF0.001731169670341199
aF0.004874419277040774
aF0.002955122256954569
aF0.0006509306838886799
aF0.0003569630394898286
aF0.0015850711512295737
aF0.08831527221005442
aF0.0031784026603883047
aF0.0036195118916079933
aF0.021546806823882443
aF0.03812837106716337
aF0.001255452830006277
aF0.003975953035916108
aF0.004427924847536387
aF0.002988216218249988
aF0.0023888178632214463
aF0.05080276501180712
aF0.0049401720648692814
aF0.01438845328487032
aF0.01152328258405208
aF0.0137780139734374
aF0.0017304093352576188
aF0.0034290955546004676
aF0.021818035880696748
aF0.0008585918194707488
aF0.00014326986833380694
aF0.004084923940429853
aF0.0031206015503077575
aF0.0059320738506062004
aF0.0050540994017995895
aF0.0431408284262084
aF0.01454869696246353
aF0.0010650783695548818
aF0.008566517617938698
aF0.0237567337193802
aF0.002988216218249988
aF0.014567384792477643
aF0.0027286871766835172
aF0.000623072036867734
aF0.000602443876101165
aF0.00013698530322571242
aaa(lp64
S'sub-0025874_ses-1_dwi_desikan.gpickle'
p65
a(lp66
F0.04102153546294967
aF0.0029580637453639176
aF0.0005868460169827694
aF0.013306636187563706
aF0.01909958147642258
aF0.0008128717442098509
aF0.00817262820587045
aF0.00946326733989619
aF0.004285482199709483
aF0.007382591688311066
aF0.01432824464467324
aF0.0052787082850378
aF0.007924525513244046
aF0.005215839908427401
aF0.009365633873151674
aF0.00235690600991897
aF0.004725641349851756
aF0.0017676371215152825
aF0.0041918928914759426
aF0.0
aF0.00161138786875471
aF0.004976375392520152
aF0.003076221007555711
aF0.00874843773091232
aF0.014540776196040366
aF0.01242988469451558
aF0.005656908460206107
aF0.004466874720956915
aF0.029062394604815554
aF0.004712135715616978
aF0.012206995849637907
aF0.0021582367317746296
aF0.00012400217003797565
aF0.001899271807825299
aF0.0026029383905400746
aF0.046733855808961354
aF0.00640179740162939
aF0.0005868460169827694
aF0.012770998574369596
aF0.020114300087105172
aF0.002476465360751655
aF0.00734872981033327
aF0.005560374060914489
aF0.0006707037397574481
aF0.001790932125354485
aF0.029676864448099364
aF0.01079387103028826
aF0.004894604080852068
aF0.004337299039403631
aF0.006729854403844169
aF0.001140877672432637
aF0.008823456543907794
aF0.010760343272571535
aF0.0026940125729444674
aF0.0006181438707390264
aF0.00046896372629941116
aF0.0013579812269785896
aF0.003967305906256544
aF0.008371817968539856
aF0.04081538755787254
aF0.028046261937691382
aF0.001971125870007306
aF0.0028636642866919056
aF0.020750841723686204
aF0.008026304152564107
aF0.005105136629317117
aF0.009000330139915734
aF0.0008948391915225518
aF0.0017574196779726085
aF0.00024872411381362793
aaa(lp67
S'sub-0025874_ses-2_dwi_desikan.gpickle'
p68
a(lp69
F0.027696596803125327
aF0.0025903511129388404
aF0.0009302173369659492
aF0.006705602879426083
aF0.014923997799506074
aF0.000934958543246152
aF0.0028802092714936833
aF0.008108072307884538
aF0.0022825355564332368
aF0.005352839204569664
aF0.011657812294981905
aF0.009211125250781655
aF0.007635495855086642
aF0.006390256493315433
aF0.008135541442635256
aF0.0014188210192272906
aF0.011762409458321441
aF0.0017836138939347746
aF0.0013733347998624323
aF7.780890133831309e-05
aF0.0010416768624541336
aF0.0023636830609795505
aF0.0009290403197999853
aF0.005756260084372509
aF0.009342452370092999
aF0.015522180778986374
aF0.007635495855086642
aF0.0038962911656976037
aF0.029642096596478283
aF0.007705787109373645
aF0.01790152259266941
aF0.0016102868671815905
aF0.00023072030744665018
aF0.0009763912560450392
aF0.001089911478049907
aF0.062068053537067486
aF0.003655468413666998
aF0.0012669313868916487
aF0.012983496855086506
aF0.04203601811514346
aF0.002329203129558739
aF0.011198507451076523
aF0.0027654302746588743
aF0.0017714826110481901
aF0.0027654302746588743
aF0.03656732964343416
aF0.010437926214505894
aF0.006791286836499581
aF0.006956169022540858
aF0.008889027804181524
aF0.0014528055543348017
aF0.008577545784550871
aF0.018928672566030428
aF0.003558264281468691
aF0.0
aF0.0024057977245225217
aF0.00038177606301015255
aF0.003008969081784976
aF0.008250832227155058
aF0.036229411638536574
aF0.0310040694832421
aF0.00377614202092604
aF0.006819867269118257
aF0.028304977441955
aF0.002412321490733333
aF0.002394695775605153
aF0.011502220775971
aF0.00036183272096150575
aF0.0005454465492828664
aF0.00031179663156494805
aaa(lp70
S'sub-0025875_ses-1_dwi_desikan.gpickle'
p71
a(lp72
F0.09491533550607943
aF0.0015858974438721055
aF0.0023211729118917273
aF0.011397604315875344
aF0.030639636601307862
aF0.0045616777061404535
aF0.0020957779885987567
aF0.005306200183747192
aF0.000654048996837149
aF0.004575582150170429
aF0.04005008775987547
aF0.0018886267984881172
aF0.011713078439263641
aF0.0033304285954029824
aF0.011761087399591355
aF0.001973594380583012
aF0.006601530092826025
aF0.020438169265720806
aF0.003687560884389761
aF3.875067813686739e-05
aF0.0023500577430209963
aF0.0003872523978147351
aF0.00325310267217336
aF0.02564101283911715
aF0.019791891725150303
aF0.013720695828520986
aF0.004160670879855538
aF0.008127452618359104
aF0.01672622620751318
aF0.0012643364155675194
aF0.009553414502337586
aF0.01082013189474471
aF0.0002906213474879331
aF0.0007812714816037662
aF0.0031802448809384962
aF0.0461740928523662
aF0.00832315429267391
aF0.0019164428094328183
aF0.011602849578870686
aF0.02016208579776003
aF0.00167604175265915
aF0.004255616836677111
aF0.011424440163252274
aF0.007988383083985369
aF0.01007552489983224
aF0.031625083398975164
aF0.0007565835380462415
aF0.013081168655031535
aF0.004062844222891042
aF0.008069908903780934
aF0.006405362802534753
aF0.013916311626317733
aF0.0020861415042926434
aF0.0034993207222422666
aF0.00012940746997676294
aF0.0009001080652419205
aF0.0005677226750567925
aF0.003976636334087061
aF0.004320834575918446
aF0.011864863725165892
aF0.03194971648722101
aF0.002983275334640716
aF0.006547503447105358
aF0.018109122065224185
aF0.0074495160994267895
aF0.0019604566913958813
aF0.0042361894086808604
aF0.00029356096121475043
aF0.00033967361542725264
aF0.00012401673796208726
aaa(lp73
S'sub-0025875_ses-2_dwi_desikan.gpickle'
p74
a(lp75
F0.09422020712111384
aF0.00237758891486685
aF0.003675892617254459
aF0.008506905282019828
aF0.018037295103873995
aF0.004159213115378069
aF0.002330769035364881
aF0.010443073788023048
aF0.001594304272360352
aF0.004208019616186704
aF0.046776039229036386
aF0.001633109975779977
aF0.00992684413819415
aF0.002909620089331525
aF0.009395237324981914
aF0.0015479711613812883
aF0.00427483933117105
aF0.014890497406425453
aF0.003652161547490546
aF4.262574595055414e-05
aF0.0017101566294464951
aF4.6099944680066385e-05
aF0.007981494165977467
aF0.022777965895725012
aF0.024829777621619573
aF0.03474708877280256
aF0.0038938712952163996
aF0.015701830186222863
aF0.023391942589048736
aF0.004674602130045275
aF0.01113575359866285
aF0.005358263804468599
aF0.00024149488985649275
aF0.00046234062608228454
aF0.0013422159912784574
aF0.043795723154934206
aF0.006400720382449381
aF0.0010225061632799987
aF0.004871688113832493
aF0.01639208115873175
aF0.0012421454907277384
aF0.003920350329154486
aF0.009319150609329563
aF0.0014076395641202499
aF0.004656803530955236
aF0.011501748404912547
aF0.002646372141059713
aF0.015325876627533257
aF0.007374840823456538
aF0.007808438843323198
aF0.003839144729869339
aF0.0190733578587919
aF0.007154433248748238
aF0.0007883873022394243
aF0.0
aF0.0037784142507572174
aF0.000969322494813196
aF0.010373142523746924
aF0.00727096044023443
aF0.013228263663039176
aF0.021318642085864294
aF0.00702191229764529
aF0.007281000295894624
aF0.022280830073663344
aF0.004688609196598137
aF0.003915739753618534
aF0.0033348257136485196
aF0.0004518351461905369
aF0.00030380247871015283
aF9.353876461913106e-05
aaa(lp76
S'sub-0025876_ses-1_dwi_desikan.gpickle'
p77
a(lp78
F0.041207754666712955
aF0.0012570965543338484
aF0.0033572578393695077
aF0.01244832656428899
aF0.023527361862598028
aF0.002498028121287502
aF0.010762933652090296
aF0.007099575245730454
aF0.001859846785911061
aF0.005097138880973786
aF0.018805798586034407
aF0.004029678803826648
aF0.007134766546683714
aF0.005422928407477864
aF0.01099488195565249
aF0.0020580754853086534
aF0.004724562672491689
aF0.003840196526220474
aF0.0035648119959169446
aF0.001342393350453062
aF0.0002644152606489297
aF0.0015714749989660212
aF0.0029421358360353827
aF0.012895024079634002
aF0.004949159903120028
aF0.010324988720136612
aF0.0013573737180703114
aF0.00594625643004442
aF0.027915531684847866
aF0.007752323591025233
aF0.00679144922589595
aF0.002535771985102151
aF0.00026357516578668977
aF0.00035865737691136406
aF0.00357562644922124
aF0.04651080163021359
aF0.0023015839213492858
aF0.003408732434758376
aF0.01033906729194509
aF0.032677072551260095
aF0.0021142528602898112
aF0.008884755400815438
aF0.004750573367283794
aF0.004679081295665701
aF0.001261592394460398
aF0.024861335279816044
aF0.004437116223938431
aF0.007000771540328203
aF0.006006839780378852
aF0.007404332837022754
aF0.0015144342937830106
aF0.009365467764403166
aF0.008319448176566378
aF0.0029619614053333332
aF5.672361171082398e-05
aF0.0012222554696741433
aF0.003466383733042327
aF0.0005263980229007207
aF0.014455448983333325
aF0.014961293869502023
aF0.032104853049255734
aF0.001107171433646966
aF0.00343605808661355
aF0.02331199009609623
aF0.005498437827314446
aF0.0025311852013023936
aF0.008625361991101664
aF0.00028784374178992525
aF0.00037022274873937277
aF0.0005693043838595183
aaa(lp79
S'sub-0025876_ses-2_dwi_desikan.gpickle'
p80
a(lp81
F0.03573520913833945
aF0.002316580921710864
aF0.002250953284034664
aF0.0197405375850416
aF0.025933792187519816
aF0.0012613709297345837
aF0.004697883429336675
aF0.005146399361270749
aF0.003991161090012998
aF0.006803923086019632
aF0.02244996993680624
aF0.0045444947108375456
aF0.009361760059744456
aF0.009218876296423
aF0.012496811500979489
aF0.0046813990084376466
aF0.003145978579968104
aF0.009625835738203949
aF0.003388076657288804
aF0.00010320751888755071
aF0.0003184482925816829
aF0.0007844451307029119
aF0.00226140423782242
aF0.01863807990822476
aF0.00935503476375899
aF0.019494185050820588
aF0.0023740916813963678
aF0.0036397744653525977
aF0.030860361840598857
aF0.008039338029116605
aF0.0040747052860202766
aF0.00141620853103838
aF0.00013193683270409614
aF0.0003804328793561756
aF0.0004403876284327355
aF0.03843289633795402
aF0.002715160926143431
aF0.001392160574922098
aF0.012043238533555177
aF0.029139056947991022
aF0.00210614440018214
aF0.012416952150408687
aF0.008909303350619763
aF0.005677128013646414
aF0.004078764567662576
aF0.02729438669467258
aF0.013591566561217872
aF0.007759028844257431
aF0.0032999976236943434
aF0.004327664862719566
aF0.0016912442434708413
aF0.0076972965669604345
aF0.006259024337717111
aF0.001978727327626081
aF5.380798378647188e-05
aF0.0010300800520235895
aF0.0006679602279901464
aF0.002018319928948761
aF0.011347616823450632
aF0.018592396789976064
aF0.028013147342140565
aF0.0022949569139737508
aF0.00394559100411034
aF0.025012246220501265
aF0.003617250870562592
aF0.0025814655724139064
aF0.0023784044040515914
aF0.0002966887237986982
aF0.00029594292701709584
aF0.0002090154558771543
aaa(lp82
S'sub-0025877_ses-1_dwi_desikan.gpickle'
p83
a(lp84
F0.05340969475411322
aF0.0018156521670664259
aF0.0015675693159201514
aF0.03915224280828831
aF0.02252557074826338
aF0.001156026924943594
aF0.0024839573106090963
aF0.005750762321947073
aF0.0033908493752424634
aF0.004560359268355916
aF0.02021778792997565
aF0.010768866572668578
aF0.008479192610833257
aF0.019006467295098896
aF0.009033553590914983
aF0.003148397165823044
aF0.00467798408203718
aF0.005479767861881052
aF0.005499822420252685
aF0.00034626498820872225
aF0.001284750646807695
aF0.002940460023039968
aF0.004973404717442282
aF0.011868913626426458
aF0.018857904960438463
aF0.018703837068540584
aF0.005642657631580076
aF0.0033943751256729692
aF0.03884195302571557
aF0.004730776733377765
aF0.007866345764030197
aF0.0008276883403181807
aF0.0003876652853634951
aF0.0011715305080126465
aF0.0006749129214634548
aF0.06134696911592513
aF0.00896315527951866
aF0.002583525482195473
aF0.011029555402055911
aF0.026806153243471437
aF0.0014719219500958936
aF0.010570801974610754
aF0.009174701492581115
aF0.0021093435745736305
aF0.004171993012905027
aF0.035427739398028776
aF0.013787246689327
aF0.013454849074877692
aF0.005901695567939045
aF0.007451362075630091
aF0.001724013237490725
aF0.006592268654881573
aF0.008942004507704066
aF0.009590368131103347
aF0.0
aF0.0016053978813270087
aF0.003968027159056667
aF0.0015438709968223366
aF0.008422392790203338
aF0.012607822956922365
aF0.02736979730914753
aF0.0015058634519105392
aF0.006604520605971371
aF0.019733726009786946
aF0.0037147096842027605
aF0.0052437963518589415
aF0.0028523780648896263
aF0.0002639928820192612
aF0.0002990524964300669
aF0.001391467731739645
aaa(lp85
S'sub-0025877_ses-2_dwi_desikan.gpickle'
p86
a(lp87
F0.05743747489185431
aF0.000770658210494704
aF0.0011043300594273371
aF0.036281940877679886
aF0.02061073070589515
aF0.0011271985303741424
aF0.005553779124748381
aF0.008046402636893386
aF0.003163876172418148
aF0.0053783155347350165
aF0.018895454294504392
aF0.013435299434848329
aF0.009446818829559795
aF0.014177197251348608
aF0.008195053872646149
aF0.004866198324641333
aF0.002182473721102324
aF0.0058730625415869455
aF0.003593433572777816
aF0.0006119007059280867
aF0.0016311543152487593
aF0.002257847075137108
aF0.0017365143489186299
aF0.017251407396446733
aF0.01876437273696053
aF0.0146789678705691
aF0.005617310465482867
aF0.004039175295319499
aF0.05707023469785439
aF0.0045285602275464045
aF0.007437426343049574
aF0.0007605008865250905
aF0.0006139111784372477
aF0.0007035959334384425
aF0.0005541909174518809
aF0.05778868118172482
aF0.008016257329655128
aF0.0015692330826886126
aF0.011494984017193536
aF0.016503752294567086
aF0.0021016183130243065
aF0.01276441084305807
aF0.010916158137932648
aF0.0017889427144313276
aF0.00680367102565215
aF0.02821481784277096
aF0.011019715328295513
aF0.008356363114069579
aF0.00713416694513354
aF0.009728304270576435
aF0.003166980585643844
aF0.005300351695216691
aF0.007493708079755057
aF0.005848127676545865
aF0.0
aF0.0024240114810483806
aF0.001620881740851005
aF0.0006361970645552978
aF0.010026826267556745
aF0.010569507394908324
aF0.028104618569528044
aF0.0013707133783205172
aF0.009089166142021534
aF0.020666538368284703
aF0.0039567330541564
aF0.004542943496716525
aF0.003064447890792857
aF0.0002761121498897939
aF0.0006843110569955172
aF0.0016205070438384582
aaa(lp88
S'sub-0025878_ses-1_dwi_desikan.gpickle'
p89
a(lp90
F0.04443585776388473
aF0.0023983449722960546
aF0.004437998635941554
aF0.019611977199856086
aF0.022132944892975674
aF0.0009066582276300945
aF0.003979208989700064
aF0.005827713285537878
aF0.004187131932555338
aF0.004264459171060352
aF0.01204699088410644
aF0.011573691963247599
aF0.010024862981181324
aF0.008994536793400693
aF0.00986915453352214
aF0.002757636554135812
aF0.0031053945970085112
aF0.0035742807482928153
aF0.0027119973209236486
aF0.00010259302208596104
aF0.0013223244375472354
aF0.002527695041329831
aF0.00617879186057066
aF0.013980436614954052
aF0.016894867998402546
aF0.01006017426582677
aF0.0003806327494929224
aF0.007055234076019819
aF0.029567267664539033
aF0.005526217931583306
aF0.007652915546043492
aF0.0011420005552961992
aF0.0002955635799984657
aF0.0007898065976907141
aF0.00025870988598556934
aF0.05721324521637533
aF0.0018587664208266734
aF0.002113610734232661
aF0.012293536050148922
aF0.04695787975317477
aF0.0028192644770054704
aF0.009209189047605988
aF0.003304521877996086
aF0.0030014927280883645
aF0.003967367274813114
aF0.048590168137566364
aF0.008149016965482113
aF0.011406316746867677
aF0.011676994374764117
aF0.014012230409336236
aF0.003152814364701926
aF0.00623239978327565
aF0.014671434100882083
aF0.012144195524721388
aF0.0
aF0.0008939421724141798
aF0.0029105322053521337
aF0.00013103949970828368
aF0.017876454750283814
aF0.012157650863722629
aF0.015780415566273832
aF0.0008486089442484074
aF0.0031330300969884205
aF0.023973031756300497
aF0.0028522608764935224
aF0.004051783925385527
aF0.0041081464914286756
aF0.0006627572023473802
aF0.00030919710122047746
aF0.0006093951387113322
aaa(lp91
S'sub-0025878_ses-2_dwi_desikan.gpickle'
p92
a(lp93
F0.0679551197759283
aF0.000771186908766372
aF0.0029722504288907637
aF0.020020102498035933
aF0.03750123837758836
aF0.0017620168646413725
aF0.0036498777770587053
aF0.005474935491932936
aF0.002307616303993754
aF0.002564709059720998
aF0.019697482562579343
aF0.008365489135531413
aF0.009166056336051
aF0.006408505749390145
aF0.00802631419498287
aF0.002564709059720998
aF0.003637228444720176
aF0.015024470617114259
aF0.0022269541686161386
aF0.0009551556685072811
aF0.0005903462603918307
aF0.0053851580874312854
aF0.00418062253548297
aF0.022548802026029584
aF0.017877608548377864
aF0.008938555661261456
aF0.00042579442986631036
aF0.005198622087885582
aF0.04039709861547286
aF0.003557396534686372
aF0.009247433710567415
aF0.0027122091233483595
aF0.00015223480696626476
aF0.000508115434417763
aF0.00246932463254089
aF0.04608908108554377
aF0.009789645379967895
aF0.001898303512630218
aF0.012387404414537643
aF0.024879706889076335
aF0.0022513175820543553
aF0.00429315700363138
aF0.006819083799448422
aF0.0023548396548052053
aF0.006037403652874701
aF0.022977758294152675
aF0.006866134846304259
aF0.010906720369582689
aF0.00910973877122718
aF0.010278737171154429
aF0.005411796449799904
aF0.007304376452004196
aF0.007019437848815165
aF0.0042312143696948915
aF6.742844607967773e-05
aF0.0006661257996347827
aF0.0037392626824859503
aF0.0009779093173517446
aF0.009874726184893852
aF0.013347410468779316
aF0.008309542111106854
aF0.0018854252380299745
aF0.0028732599227893466
aF0.02880433878399879
aF0.0030086425635272632
aF0.006115783201406118
aF0.003818032881464648
aF0.0003595864209674952
aF0.0004407091203766395
aF0.0
aaa(lp94
S'sub-0025879_ses-1_dwi_desikan.gpickle'
p95
a(lp96
F0.03016789466809305
aF0.002886321800743295
aF0.003103276543689615
aF0.013484297382832957
aF0.022411424558681774
aF0.0008868717244676324
aF0.006005946561393034
aF0.006726511835651707
aF0.0025018950012820496
aF0.004643703264327065
aF0.020255915488849134
aF0.0030850484900292385
aF0.010628601684006169
aF0.002607110007091118
aF0.012873113257137865
aF0.004571821721706229
aF0.006192425386035366
aF0.0044941641688948765
aF0.0022406669298078276
aF0.00030682793433031155
aF0.000859619165516012
aF0.0027854497950362857
aF0.002806789257412179
aF0.012408017584327365
aF0.01171818796535018
aF0.00960285653059265
aF0.0018870289158541666
aF0.005198230989816291
aF0.03419769382739005
aF0.00678901601854242
aF0.011057109347546683
aF0.0023285945444143593
aF0.00012119709118083739
aF0.0002383938424534499
aF0.0006639933078086358
aF0.02354600986455664
aF0.006234837717054917
aF0.0025197554347842423
aF0.012288996031165752
aF0.018503950582197733
aF0.0010953464040172848
aF0.005505167701837757
aF0.005362120833185206
aF0.0036859634472367103
aF0.003930724384394778
aF0.01863576048889059
aF0.004133301397060698
aF0.006407329877619893
aF0.0050823758152086515
aF0.0031884711502627038
aF0.0034567558803453246
aF0.002836706765547169
aF0.004225027520905136
aF0.0059250689249820895
aF0.00034619806227943826
aF0.0003052104608139419
aF0.0011591975146353509
aF0.003923301917651966
aF0.010292818915501455
aF0.01023720135631253
aF0.021240944608410587
aF0.0022975490314994483
aF0.002953112264394887
aF0.02641200387265927
aF0.003661622166432537
aF0.004270089267276464
aF0.003981508638062785
aF0.0004678683067429871
aF0.0004734243480550234
aF0.0001531132656153637
aaa(lp97
S'sub-0025879_ses-2_dwi_desikan.gpickle'
p98
a(lp99
F0.04144956283264893
aF0.001893486809281937
aF0.0023191880516739796
aF0.01513357189375508
aF0.02894611172953996
aF0.0014194524207411302
aF0.0075710175116790865
aF0.005115771413162492
aF0.001598822666215666
aF0.003604482921502498
aF0.02313543744585078
aF0.0027088337342677663
aF0.014765997408026697
aF0.004141833470664357
aF0.009672411377521168
aF0.003364944762193407
aF0.004053786039109289
aF0.006980997138079918
aF0.004224347446297281
aF0.0003994874230573861
aF0.001816985228935063
aF0.0023986692833255206
aF0.00418484866709071
aF0.01642787086188048
aF0.007854530916048109
aF0.010399779197314874
aF0.0023151780548701494
aF0.007102214970458901
aF0.03354862307831148
aF0.004424917113663405
aF0.008520129179451292
aF0.0011939554027030716
aF0.00013972904014666453
aF0.0004696998587573404
aF0.0011806878334985993
aF0.03033068731967431
aF0.005725045048705545
aF0.002444532871413671
aF0.008115354905719052
aF0.02335507163906323
aF0.0013226734272351092
aF0.005622986511832116
aF0.007657619883635419
aF0.004616437833954293
aF0.004498912422132579
aF0.03219965857298933
aF0.003987806038046663
aF0.00686311022514855
aF0.003384141871458432
aF0.004016422510052502
aF0.0031316058872880347
aF0.003703759152022366
aF0.008176066316520403
aF0.0030275707465117286
aF0.00029233929669303474
aF0.00020224851376419553
aF6.539176935596373e-05
aF0.004411351711104082
aF0.01027573855046236
aF0.012070834662393141
aF0.024331420792769523
aF0.003191559234872952
aF0.0022290254598676855
aF0.020285858895039505
aF0.007321745756961149
aF0.0047141700304707945
aF0.0027615386039593574
aF0.0005230111368218784
aF0.0006219328765064228
aF0.0001132075373510468
aaa(lp100
S'sub-0025880_ses-1_dwi_desikan.gpickle'
p101
a(lp102
F0.054462159610863675
aF0.0019939038717592663
aF0.002600453598215984
aF0.008101690435378875
aF0.03095837332422646
aF0.001277938842577366
aF0.006794188438156546
aF0.006807427416239113
aF0.0023192329594204303
aF0.004875180587075778
aF0.025033899508997027
aF0.008666315716048636
aF0.015479062986691446
aF0.009620868203131827
aF0.01277751274593893
aF0.0036174272793252503
aF0.012414727519162701
aF0.0011966436114767879
aF0.003526862260084667
aF3.875067813686739e-05
aF0.0021606972937863026
aF0.0007207029032551754
aF0.001418506541455848
aF0.004429709736654514
aF0.0023418884709613687
aF0.0231168917927612
aF0.00405300628551367
aF0.006844747163638825
aF0.016290465877143452
aF0.004014852177963739
aF0.0037259276233241982
aF0.0028280622340175043
aF0.0005161099790555524
aF0.0008213304297365484
aF0.000597923718333508
aF0.05899950947413098
aF0.003737884199682205
aF0.003140989855732202
aF0.013548187587445824
aF0.03188287638318247
aF0.0016702147104776122
aF0.006374874434871508
aF0.013734403566385951
aF0.003984155032024921
aF0.004710440808361936
aF0.05077326586647628
aF0.004961606847984485
aF0.008278605531439531
aF0.0037159461850106773
aF0.011255634028366608
aF0.0038625556254383896
aF0.0037887366742723133
aF0.023883898112495396
aF0.0032366593450002083
aF0.00038840186021133394
aF0.0011652408393889513
aF0.0011442193528707315
aF0.0017787006562064386
aF0.02301276321797688
aF0.024773759831209396
aF0.02808079603515064
aF0.002107908623585982
aF0.0058202111133554
aF0.0343841977602799
aF0.0028925049460358757
aF0.007350852263490645
aF0.0006356451331628102
aF0.0006037215420698789
aF0.000393752270648125
aF0.0003802841598681431
aaa(lp103
S'sub-0025880_ses-2_dwi_desikan.gpickle'
p104
a(lp105
F0.05734269580088809
aF0.0037465766680510847
aF0.001693060648927682
aF0.007283679737040206
aF0.025742649325355683
aF0.0013681865789166722
aF0.009874779053317816
aF0.01172387200879389
aF0.001857777662590815
aF0.008135951000100165
aF0.019281985440632348
aF0.005393015261868038
aF0.021103089884122166
aF0.006928035841331736
aF0.012609798988923159
aF0.0034607485140281426
aF0.011121056812074022
aF0.000999409636974174
aF0.001535286207997688
aF3.875067813686739e-05
aF0.0013809387274508333
aF0.0026189891392681603
aF0.0009419636107359212
aF0.0042612774967417
aF0.0037330878477948607
aF0.022673684357828468
aF0.0038687418767136654
aF0.0096961696271578
aF0.011984766259479052
aF0.0023636759475347624
aF0.005297234785024668
aF0.0016532870988094142
aF0.00011840484986265037
aF0.0004640533352681643
aF0.0003032831666867575
aF0.06415245205562166
aF0.00455309329718127
aF0.002063069493113413
aF0.014629538483733077
aF0.0400333964246587
aF0.0028055787460480046
aF0.0032309235280720237
aF0.009452749540959064
aF0.0029927432960009047
aF0.00540240050508861
aF0.04095009485126315
aF0.007062053522860301
aF0.004782199283469039
aF0.005880172147551417
aF0.009183856752642083
aF0.0031753374516965576
aF0.0024472880226295694
aF0.020312341170430646
aF0.0036313508692858085
aF0.0003731473812660989
aF0.000891297199650579
aF0.0013056727435930995
aF0.0004419739628177504
aF0.02380569483689638
aF0.03623722519713219
aF0.032354213516073434
aF0.0026183242855906366
aF0.003003889415060743
aF0.02405611487110235
aF0.0021054544762339426
aF0.0073576194502025715
aF0.001454689860529746
aF0.001834069771966206
aF0.0008579740486238719
aF0.00033373216921661576
aaa(lp106
S'sub-0025881_ses-1_dwi_desikan.gpickle'
p107
a(lp108
F0.04885614212967555
aF0.004505205445701432
aF0.0031803783051714105
aF0.011048081345612863
aF0.032516903056156274
aF0.001994266114235765
aF0.00457704995096179
aF0.009495479178945236
aF0.0019022601925903792
aF0.005348476269337172
aF0.02761012235028226
aF0.00384167498438531
aF0.005039424466552699
aF0.006295187048727541
aF0.0066842395620071385
aF0.0045561409490023986
aF0.0038435826638558886
aF0.007092315631480074
aF0.004720582705757175
aF0.00038409275152262836
aF0.000684515052839109
aF0.00035177858448149285
aF0.005731316645636604
aF0.014993665784187442
aF0.010639733069046116
aF0.023392670503208406
aF0.0023077064716669283
aF0.003813720248492005
aF0.02337099811142513
aF0.006921467055672419
aF0.006643329757373885
aF0.0049956993786025375
aF0.0011475315617997894
aF0.000643723421351635
aF0.0016281179442693989
aF0.048366096719567236
aF0.006470182809809312
aF0.0035382364722636116
aF0.004343430286206431
aF0.02715164117551434
aF0.0004424876151853361
aF0.00758859855686349
aF0.0066988097935218194
aF0.0031251057506039544
aF0.0031586304631715315
aF0.023775182130523338
aF0.006274439189517515
aF0.007554201223052577
aF0.0009767463376145515
aF0.006720111941899833
aF0.002705228682875103
aF0.0061472328476525
aF0.0038110062997336585
aF0.0012171499562105568
aF0.0
aF0.0013828513635093906
aF0.006858848922335641
aF0.0034667775769255138
aF0.0043290226829148055
aF0.011245077867407395
aF0.040207622945346334
aF0.0047995158323055455
aF0.005446515621062754
aF0.018230292471128992
aF0.004718608564853739
aF0.007602843633236861
aF0.004277114061929796
aF0.00023329102236880182
aF0.0007066444165307753
aF0.0009243679754513592
aaa(lp109
S'sub-0025881_ses-2_dwi_desikan.gpickle'
p110
a(lp111
F0.049110532218700424
aF0.004398587542244472
aF0.0035325913734028406
aF0.016306923429374075
aF0.030965560884977133
aF0.00179000931414517
aF0.0031159081199785216
aF0.00972468970009782
aF0.0018409653197391154
aF0.007380765377750971
aF0.037469570442598375
aF0.002497079502705877
aF0.006623542004958632
aF0.012374906962596669
aF0.0056401915255397585
aF0.006735920089645567
aF0.004770144582696318
aF0.009248164883615307
aF0.007847729952452788
aF8.780350773988102e-05
aF0.0007673487173108312
aF0.0007038850819630114
aF0.006167256558334546
aF0.013876774091956841
aF0.0075161399521635605
aF0.022686878821874524
aF0.0025958330409022352
aF0.005285623239898607
aF0.01507629985866306
aF0.003975279254860665
aF0.0030604904353007992
aF0.0004719107527069226
aF0.0021363899519860844
aF0.0009094191695305532
aF0.0009407448301815228
aF0.0440749112626387
aF0.006624512064670438
aF0.002010606965320817
aF0.0072748122523596135
aF0.018034832163732657
aF0.0010874019709108224
aF0.007043600409497667
aF0.014894812868265243
aF0.002680583019039647
aF0.003073033860784153
aF0.029965644900139605
aF0.00890458969557842
aF0.008178074111195671
aF0.003318238262378303
aF0.011152007072464928
aF0.003073033860784153
aF0.0057597782870862394
aF0.0020622220571998354
aF0.0022149967460334532
aF7.772667305315349e-05
aF0.0019696058149887875
aF0.005275500943075302
aF0.005101913815270783
aF0.003679763434177377
aF0.014141047673081017
aF0.02579348437880851
aF0.001797056017174208
aF0.004648603370002198
aF0.012455361402770173
aF0.003861126642340139
aF0.01575467013017336
aF0.007997425853851632
aF0.0001229829255793895
aF0.00025939908043869114
aF0.0009289056947494351
aaa(lp112
S'sub-0025882_ses-1_dwi_desikan.gpickle'
p113
a(lp114
F0.05255878691238511
aF0.008049127305342846
aF0.0015645259712443974
aF0.011756067700208588
aF0.028849528765632855
aF0.0006098265958662224
aF0.00441889965126021
aF0.010705396078230399
aF0.0020792709502736166
aF0.010705396078230399
aF0.02636907858122984
aF0.0008388168423706083
aF0.007831446669263817
aF0.0057425894656714565
aF0.007620493119339433
aF0.005009248765083992
aF0.002403761055083338
aF0.009466172838863609
aF0.010670403020634309
aF9.971379856290342e-05
aF0.0010354484070366975
aF0.0006731327855342175
aF0.002347734147541883
aF0.01884883571452489
aF0.011413526716558908
aF0.010583365542217362
aF0.0020747015964254307
aF0.006453494867614903
aF0.03399164676686214
aF0.008280725355003017
aF0.005539198972620773
aF0.0007087889850244941
aF0.0002742469795275572
aF0.0005272664979014659
aF0.0008874045492788658
aF0.04401879132662408
aF0.00341389994302614
aF0.0011218549125752233
aF0.006500784878434574
aF0.029504802548046778
aF0.0038923110157944763
aF0.002705823421755402
aF0.00717911368280591
aF0.0011153318077410162
aF0.005169500489453363
aF0.02291202275562708
aF0.00559703035659263
aF0.009288576764221108
aF0.0086854912291436
aF0.006834053602601451
aF0.002533528932603149
aF0.002934815377223736
aF0.010168140795518078
aF0.002035229541270101
aF0.0001712864143877739
aF0.0009909085977237021
aF0.00509068047364428
aF0.006277021813346287
aF0.013813706046130145
aF0.01851479331507369
aF0.0267263164242046
aF0.0014782980009229027
aF0.005064621480319404
aF0.015271115122123521
aF0.0014086739226497813
aF0.004222934930851093
aF0.006689193745314801
aF0.00018745776230355739
aF0.00039663382072874383
aF2.131287297527707e-05
aaa(lp115
S'sub-0025882_ses-2_dwi_desikan.gpickle'
p116
a(lp117
F0.04212770820883374
aF0.002978196173747196
aF0.007181240140266959
aF0.01206164479085276
aF0.030327968609348114
aF0.0015229722703739138
aF0.0027422160634141698
aF0.0051569027511200564
aF0.0025149085837440585
aF0.0051569027511200564
aF0.013091576348499927
aF0.0028404871365731274
aF0.00704797557422098
aF0.004189168027713208
aF0.005425272881000956
aF0.0022215511226517356
aF0.0027135679042421075
aF0.0032706497792806253
aF0.001752444364675897
aF0.0006263977272872701
aF0.0003921692019013328
aF0.0027501481604942177
aF0.0028566275113290256
aF0.016615192307001692
aF0.006313852150796604
aF0.007417819362920509
aF0.0028233975187044224
aF0.0041635453377485195
aF0.03807372148869155
aF0.004217781341077274
aF0.004451753518388757
aF0.0041833759247411
aF0.00018268176835951772
aF0.0007938274786652471
aF0.00021559062311765436
aF0.04825567253080107
aF0.0036594980584225448
aF0.005408534787774419
aF0.004652686765670566
aF0.030747118535492893
aF0.0013261166699825326
aF0.0077229580187508666
aF0.008412104931421537
aF0.0029977298357082263
aF0.0050778189163691876
aF0.028444741865250495
aF0.004310612878948142
aF0.005433724875151048
aF0.0046648706734865285
aF0.008403496968911316
aF0.0016532525908773711
aF0.007095800496150397
aF0.009241261551960379
aF0.002127811361849355
aF4.262574595055414e-05
aF0.00133152989826303
aF0.0025032289255308513
aF0.0014292774449835106
aF0.01140763735831542
aF0.017160784055388897
aF0.03160782979546566
aF0.0023646258607819986
aF0.005188864525659925
aF0.03613652453655874
aF0.005621339999494488
aF0.009548272779915037
aF0.008574241337624555
aF0.00013661070835656916
aF0.000439994078101495
aF0.00021210622818476426
aaa(lp118
S'sub-0025883_ses-1_dwi_desikan.gpickle'
p119
a(lp120
F0.05132883061282656
aF0.001948974362322607
aF0.0005553210707889264
aF0.017093102829798246
aF0.028425955295168462
aF0.0023608175373801012
aF0.0030790423992699645
aF0.006395267399570402
aF0.002629752672809986
aF0.003988773854226234
aF0.013177207909888895
aF0.004087906622282447
aF0.011214575170063515
aF0.0029545122692543773
aF0.00822387293665918
aF0.002774290016295111
aF0.0042649506941129815
aF0.004186568207490498
aF0.0012893954360720685
aF0.0
aF0.002490680958224492
aF0.007302619803558679
aF0.0020901806835166084
aF0.011996407946529248
aF0.010380296567956452
aF0.010639523220951342
aF0.005584478536151528
aF0.007585784663410569
aF0.034811421797121316
aF0.005193686750485447
aF0.005689174323567303
aF0.0017089314212591605
aF5.505825518613242e-05
aF0.0003439426286826116
aF0.0011536449676186214
aF0.060331314376187786
aF0.00517185427177065
aF0.0006908768186410802
aF0.006273081253905479
aF0.03674240465409805
aF0.0016397584289159536
aF0.005256445981866174
aF0.005350572200209049
aF0.001802558808001638
aF0.004636377933209122
aF0.02885245975119348
aF0.006261563808807349
aF0.008954731314521415
aF0.0046745443934846495
aF0.0023766323462345892
aF0.0013653521638226588
aF0.009593371635044772
aF0.012582156079821766
aF0.0009377145968808479
aF0.00031272725458072234
aF0.0007512631803762894
aF0.005974175287551259
aF0.007534096675389295
aF0.018535713174140336
aF0.033100902875598075
aF0.0420698264829397
aF0.0018645495124850029
aF0.0019674433270156465
aF0.013014609533170313
aF0.001573659571475753
aF0.005441087527175967
aF0.004755434429798465
aF0.0015536500427715807
aF0.000361800745432459
aF4.2428404534116384e-05
aaa(lp121
S'sub-0025883_ses-2_dwi_desikan.gpickle'
p122
a(lp123
F0.08338140579108347
aF0.00046974837116217535
aF0.0014241076052744926
aF0.017173910696272332
aF0.02821925821221854
aF0.003680630031729706
aF0.013006034385035477
aF0.005504789136959502
aF0.0006974032948952971
aF0.0022227516370905273
aF0.02208190785546008
aF0.003864173703730253
aF0.008171867657562932
aF0.0075178246281297585
aF0.00884309372311327
aF0.0014057220705894966
aF0.02064807293807753
aF0.010652624318037004
aF0.004019846704874616
aF6.323599673983306e-05
aF0.001419192062878665
aF0.007317407845726211
aF0.002065917834544498
aF0.009022612884518274
aF0.014749390675919443
aF0.0058503457705012495
aF0.005062035217949689
aF0.0026030124124264394
aF0.028858599252018134
aF0.004725309485779638
aF0.0047501257534533865
aF0.0009401323715885232
aF0.0008260925215622164
aF0.0005212815616659196
aF0.0016137299369142657
aF0.05427061217781313
aF0.0019807373320435105
aF0.0019020267213010257
aF0.011454543962681885
aF0.027093938139921146
aF0.0017888207124409797
aF0.005502191192216201
aF0.010547810689435748
aF0.0064063212516721054
aF0.0048534936553507775
aF0.05248134162469324
aF0.0070445870640084025
aF0.00968618164029306
aF0.003658602771580155
aF0.007475962020031024
aF0.004140082226402211
aF0.006738439067350821
aF0.008542589799443239
aF0.0021702144719572677
aF0.0
aF0.0020622691396946003
aF0.00043737265167618854
aF0.002225951339223751
aF0.015619430264917493
aF0.011919875268157963
aF0.024869621453759223
aF0.005447126514118856
aF0.006292311226595615
aF0.02942571671909369
aF0.004719730064061758
aF0.003005970258684237
aF0.0019340918923242587
aF0.0003313749259572457
aF0.000225101695689931
aF2.2434603131870597e-05
aaa(lp124
S'sub-0025884_ses-1_dwi_desikan.gpickle'
p125
a(lp126
F0.08313468114561659
aF0.0005020890822985029
aF0.0008694626304261685
aF0.018837279028032207
aF0.04646479034359746
aF0.0020555790044674443
aF0.0047013941162437544
aF0.006186320403092173
aF0.002648985175695723
aF0.0031528261150839277
aF0.020869886277424903
aF0.0035475490972133707
aF0.012703934207226463
aF0.005306222336163955
aF0.009128992038529118
aF0.0012918620192395793
aF0.00480787561513544
aF0.007730452617858699
aF0.012866238364555494
aF0.0
aF0.0028755909692518063
aF0.001233148920748392
aF0.0009158320550467592
aF0.038304842869413
aF0.019214928785039626
aF0.02035635690896017
aF0.003671041476991327
aF0.006367901088586633
aF0.03872040268439345
aF0.009372822629521273
aF0.00453378920514245
aF0.0014109671581060445
aF9.438558031908415e-05
aF0.0006399532126985871
aF0.0005278355981868901
aF0.043619673720337704
aF0.001005453032980291
aF0.002133100540414204
aF0.005353983791631612
aF0.017240593125292473
aF0.001717419007961124
aF0.012677397984381767
aF0.0038657010146177506
aF0.0009771659170151534
aF0.001540336138848801
aF0.02643906363132423
aF0.005793434950150676
aF0.008067544422115719
aF0.00854254231090678
aF0.007257560230884987
aF0.0013421710383949115
aF0.009008242805101449
aF0.004282537102367129
aF0.0033241681180734882
aF0.0001933275590564593
aF0.0023629128464079433
aF0.0014618555940933157
aF0.0037413717454802572
aF0.006373317053087729
aF0.016391876243575774
aF0.025336584423602954
aF0.003843716371775695
aF0.002166427780743007
aF0.017585201770588824
aF0.009751964680164737
aF0.006837129838626589
aF0.002418784989066347
aF0.0005865549830627817
aF0.00026344198412495617
aF0.0004452568890027815
aaa(lp127
S'sub-0025884_ses-2_dwi_desikan.gpickle'
p128
a(lp129
F0.06679706550870115
aF0.0010209764974845408
aF0.0006971288866611482
aF0.01666718194809202
aF0.041816219913982065
aF0.002098253016062672
aF0.005361193197736882
aF0.009683956708805539
aF0.0022345920749814088
aF0.005497365079414678
aF0.017365424863727674
aF0.005460836992644305
aF0.02005246470648029
aF0.002776739605267636
aF0.011757817962074908
aF0.0015240400805381056
aF0.00758895856271091
aF0.01796054395732098
aF0.0030005115230293815
aF0.0
aF0.004646808208298571
aF9.47238798901203e-05
aF0.001562160046280852
aF0.027933306080912886
aF0.02240972384897409
aF0.024919113780005716
aF0.00946244937371357
aF0.008653101783187511
aF0.0466610716705631
aF0.00689680107527978
aF0.006848713408780731
aF0.0019384448736763243
aF0.00010960906101571062
aF0.0005278207084733627
aF0.0006742844226687853
aF0.044372442175414056
aF0.0013986380037641509
aF0.0016851519480624653
aF0.005138210388818811
aF0.016101888995755313
aF0.000580546539814557
aF0.007512890032211467
aF0.005229363530111376
aF0.0015872078634972702
aF0.003413960269767289
aF0.020652066961052738
aF0.0061756041209284265
aF0.007045719533620928
aF0.004134993488671939
aF0.007626981120210367
aF0.003123858613764514
aF0.004335797150813856
aF0.003252773364949532
aF0.002412975286418953
aF0.00012647199347966612
aF0.0016125684999355747
aF0.0025667253284583046
aF0.0012490286252943256
aF0.0053820920102400065
aF0.014899959830125433
aF0.029960406920077363
aF0.005547599692877634
aF0.0034226539142655325
aF0.02367316228673924
aF0.009571312286136714
aF0.006284010840919429
aF0.0015872078634972702
aF0.0003172019796060717
aF0.00032625622459382046
aF0.0005768417281907644
aaa(lp130
S'sub-0025885_ses-1_dwi_desikan.gpickle'
p131
a(lp132
F0.03419620655062688
aF0.0031346608164172585
aF0.005081632681794924
aF0.011387186231550802
aF0.034446041754023764
aF0.0005673039721695227
aF0.004376092687998903
aF0.006689405999041986
aF0.0029322195029887355
aF0.005727498903344321
aF0.022490395472679583
aF0.0014893809546329066
aF0.011284034461800646
aF0.005245228484727217
aF0.010403963756547547
aF0.0029554087561253117
aF0.002076873601417878
aF0.010086544511132603
aF0.000685575030451627
aF0.0
aF0.001762804605304327
aF0.00020521363883495273
aF0.0024599980131281146
aF0.006743818362792039
aF0.010171685049440474
aF0.006620609076657624
aF0.0034148533562189487
aF0.0038330839268825106
aF0.042106986993401
aF0.004761333320656123
aF0.004636216591800311
aF0.0027175611971270676
aF0.00011840484986265037
aF0.0005239581601136238
aF2.3717069012122348e-05
aF0.05065726419165934
aF0.003563388027377377
aF0.004580416479639241
aF0.005767365864558918
aF0.03283727578287935
aF0.0
aF0.004279769440730728
aF0.006834225565610426
aF0.002647089922776256
aF0.00548141491962189
aF0.022680242356130243
aF0.003553964584535711
aF0.00776305072211443
aF0.005295110036700662
aF0.011351930968455963
aF0.0011635715089321676
aF0.009780156790616775
aF0.008361906543951867
aF0.0027531966377513884
aF0.0
aF0.0016642438672476096
aF0.00016716020552337687
aF0.0026457998587523022
aF0.007938898118486951
aF0.014075643467483653
aF0.023956815051855575
aF0.002346421473692273
aF0.005321144013904529
aF0.01936396444994413
aF0.0079457191791428
aF0.008415818397349336
aF0.006658931429615957
aF5.328218243819267e-05
aF0.0008104753584379265
aF0.0014732012946264486
aaa(lp133
S'sub-0025885_ses-2_dwi_desikan.gpickle'
p134
a(lp135
F0.061630109628757236
aF0.0005261675731522207
aF0.005119621539685527
aF0.01969584069647872
aF0.05255849801857306
aF0.0014262964050387585
aF0.0026029198262487994
aF0.003756880503013887
aF0.0005964618557953105
aF0.0025405055700490637
aF0.022652944789533325
aF0.0029107971442694234
aF0.010906867518616728
aF0.007999676194113021
aF0.014777906203864818
aF0.002226703191359641
aF0.003094902624601001
aF0.01598946685179795
aF0.0018802858359484617
aF0.0
aF0.0035262614104723316
aF0.0021012365361686774
aF0.007093624663123438
aF0.019264900852784046
aF0.023468710373111764
aF0.014349249742499471
aF0.003060674509644411
aF0.007109826947498708
aF0.031607130196792045
aF0.004293650801646643
aF0.003821678630143766
aF0.004017358825492505
aF0.00013365058711000292
aF0.0005956535884866832
aF0.00010379385122692526
aF0.05049780985128494
aF0.0016361707814495723
aF0.002338558969759397
aF0.00510695466886575
aF0.02229786045927229
aF0.001273755178204864
aF0.003921792608907583
aF0.010988845110178076
aF0.004004121626303486
aF0.003156195058063812
aF0.026168215181157937
aF0.007200063530483553
aF0.011013151688103585
aF0.0053411321581254435
aF0.016061680974424945
aF0.004055345906897721
aF0.005243654878683617
aF0.005758859773862896
aF0.0017823389205022231
aF0.00012432509235578288
aF0.0020918762702245436
aF0.0004402451445443374
aF0.0025772059921484757
aF0.005796672335876866
aF0.008021241144119227
aF0.02165380889569481
aF0.004743684048857844
aF0.006780228612139813
aF0.027540107278601136
aF0.00512524124764486
aF0.004817988724158229
aF0.0017535199579465752
aF0.0005127251193650257
aF0.0003961534059138358
aF1.9375339068433697e-05
aaa(lp136
S'sub-0025886_ses-1_dwi_desikan.gpickle'
p137
a(lp138
F0.04309261954535898
aF0.0023326613947907675
aF0.0010187196291137127
aF0.012911781031708178
aF0.024485585600621203
aF0.002715556732957278
aF0.0038578331524742396
aF0.004551882933710956
aF0.0009317696642188388
aF0.004551882933710956
aF0.01795150843549873
aF0.008342881260315167
aF0.01374564672351451
aF0.008715072426034524
aF0.00896296482296332
aF0.0024976836875903446
aF0.0026862838407444014
aF0.006986736188545558
aF0.0037596381441112043
aF0.00024240701990062603
aF0.003782275795031752
aF0.005100194768794728
aF0.0015251454956267973
aF0.009046363515231273
aF0.015268688715084425
aF0.008900643931123805
aF0.005867565050879971
aF0.004653884912791908
aF0.03288102933339789
aF0.005005740355716377
aF0.016212899767751674
aF0.00028419549396574667
aF0.00010979358805445761
aF0.0005388442635269533
aF0.0019454708826687438
aF0.061793690437408615
aF0.016990757179157295
aF0.0014782174913019483
aF0.016724406428880154
aF0.028529091182590303
aF0.001560064285468001
aF0.015834251887238655
aF0.007457391390674375
aF0.0018926308404510785
aF0.001445018712976551
aF0.017188346542791895
aF0.010763910236276627
aF0.010705379746257513
aF0.008818395692309362
aF0.008478867795205425
aF0.0012403085959253482
aF0.01336509464396283
aF0.014613226132120823
aF0.001012962947059472
aF0.0001906318082788671
aF0.001229658466346054
aF0.002883845669814916
aF0.0011417715602912543
aF0.01185511341502204
aF0.025405599934141734
aF0.02211962491071433
aF0.004468679561754124
aF0.005615057786716131
aF0.04937622571414306
aF0.0018926308404510785
aF0.008183629712837497
aF0.0004587056222230596
aF0.0001664433889497828
aF0.0004313883363329229
aF0.00035044975949149364
aaa(lp139
S'sub-0025886_ses-2_dwi_desikan.gpickle'
p140
a(lp141
F0.04854745967431661
aF0.00655508090676151
aF0.0014635906365851811
aF0.01023124288067695
aF0.02280499652634346
aF0.0012905587150727784
aF0.004505719341877705
aF0.009275773730147785
aF0.0012038219697977641
aF0.009275773730147785
aF0.020524137444664605
aF0.006697354571537088
aF0.010677019725312622
aF0.005432923323453405
aF0.010459511613624413
aF0.00851484690165044
aF0.004122470926185934
aF0.009188233033511642
aF0.002349946550528603
aF0.00013827876479053383
aF0.0021168843717399768
aF0.0012308009973535153
aF0.0034751368917625407
aF0.009630992045174725
aF0.013005398879631886
aF0.008097140198341074
aF0.004019381895546421
aF0.005669028873268682
aF0.026689965993113542
aF0.00277153114101997
aF0.01604335038472387
aF0.000774398435167916
aF0.00012593970394481904
aF0.0003522006079550837
aF0.003253369350645911
aF0.05437152644563683
aF0.007338708400529853
aF0.003598112824610434
aF0.02448022926547011
aF0.024583723478162286
aF0.005531762955790347
aF0.0034456140132760275
aF0.005849760186060535
aF0.00048462823268684676
aF0.001613999685870887
aF0.018644503465804964
aF0.006801096899157967
aF0.0076098503524865265
aF0.0085355270320902
aF0.008650880205620203
aF0.0009699048701606248
aF0.012723586523406794
aF0.009108586323110986
aF0.0028787204964602214
aF0.00027157315287982577
aF0.00022072982431038695
aF9.298263209802251e-05
aF0.0032904279462748517
aF0.011253093898786154
aF0.031861723989410576
aF0.02280937234708127
aF0.0027681749548066317
aF0.0032531181602473355
aF0.04776348262851436
aF0.004757416410372384
aF0.01969873473541495
aF0.0029578012145173465
aF0.000286492004560306
aF0.0005378912212198565
aF0.00048462823268684676
aaa(lp142
S'sub-0025887_ses-1_dwi_desikan.gpickle'
p143
a(lp144
F0.037024603124431545
aF0.001377241884450728
aF0.0015044734082216532
aF0.011328071732435135
aF0.02436249330268089
aF0.0039060078771113514
aF0.006498713632693534
aF0.004290336052109157
aF0.001153008727282637
aF0.00422668202710143
aF0.024127525030035853
aF0.0030675475861593414
aF0.01666836554884645
aF0.008933500221840616
aF0.014096948048916853
aF0.003242977015787946
aF0.0032884477738146537
aF0.006377059458528166
aF0.002043450819449471
aF0.0
aF0.005190256638696762
aF0.0008626019432389503
aF0.009952625018087856
aF0.017166894499498993
aF0.023187008075200962
aF0.017653970834130697
aF0.0010033320461101032
aF0.012308289312032856
aF0.02258057182184735
aF0.011629690563275475
aF0.006540296266317889
aF0.005283489560000408
aF0.0003802885177941594
aF0.0005895466038390485
aF0.0006502644303596472
aF0.06234228148754099
aF0.0046942509999995
aF0.0011704288073469064
aF0.00558205857700051
aF0.030981995275595815
aF0.0004558319137149054
aF0.004153248776753552
aF0.006955355255202503
aF0.005998017307124741
aF0.0028342413555482917
aF0.03402529595707916
aF0.005613759418397914
aF0.008174992682394477
aF0.004887081969852927
aF0.012722478434790144
aF0.001778179041894741
aF0.00914795228043488
aF0.005489600459760053
aF0.0018459227735546245
aF2.5496235963455726e-05
aF0.0020986446291966425
aF0.002504250569580444
aF0.0049217585983484516
aF0.01912890692712134
aF0.010541065631238467
aF0.0279255475202977
aF0.002685543328993555
aF0.005897037517220138
aF0.019748681663987334
aF0.0051027797174280085
aF0.0035471288650946145
aF0.004274616969915441
aF0.0001372650509479154
aF0.0009364710060510824
aF3.629366050137761e-05
aaa(lp145
S'sub-0025887_ses-2_dwi_desikan.gpickle'
p146
a(lp147
F0.050200363854703285
aF0.000687933746284686
aF0.0019229327275505734
aF0.012494965296552503
aF0.03173319402659517
aF0.004325709173661856
aF0.0026936506982834147
aF0.005766130941400128
aF0.0005222775544136602
aF0.0037562339041555676
aF0.020931261836143054
aF0.004495024620698232
aF0.009096213131342882
aF0.0038950147431384393
aF0.010591415201696992
aF0.0022442200018941527
aF0.007776181101715214
aF0.006810708192138425
aF0.005570292459789423
aF0.00015301549828404052
aF0.004144570025741172
aF0.002905016651217562
aF0.005896467043531622
aF0.01346118224947226
aF0.009696850761768044
aF0.016422618923222453
aF0.001289310068552428
aF0.005530533733564004
aF0.010128632682482349
aF0.00658151418298688
aF0.013568550211581971
aF0.004873409821622745
aF0.002132862361167486
aF0.0015284250844425586
aF0.0009957216244766748
aF0.06522620132181557
aF0.0064302037499762085
aF0.0011763499045612561
aF0.012212401474288983
aF0.027062472359567227
aF0.0021722282479483316
aF0.008002864026324144
aF0.0037872446677219337
aF0.005035828045708183
aF0.0033282882896755166
aF0.03176775456039274
aF0.005241167962399495
aF0.014490750026103833
aF0.00442750339277398
aF0.00924156651074932
aF0.0027795619167998425
aF0.012257657770904842
aF0.005928084437894745
aF0.0004897763289524132
aF0.0
aF0.0030321232072498113
aF0.0031538500663682322
aF0.004098585384012441
aF0.00822720163857653
aF0.02586295941710919
aF0.02593798059569492
aF0.005192113022289017
aF0.009846952734865992
aF0.025639900688043133
aF0.004881228769762578
aF0.0020181319436454533
aF0.010106827011173639
aF0.00015003585975452983
aF0.000648859760112957
aF2.0297974262168634e-05
aaa(lp148
S'sub-0025888_ses-1_dwi_desikan.gpickle'
p149
a(lp150
F0.059088567135421335
aF0.001985516640647104
aF0.0020532952520968483
aF0.009514430434540078
aF0.022213445494123612
aF0.002596833327188191
aF0.01074325671283663
aF0.007280050433947091
aF0.0009413432782998001
aF0.004704088121513928
aF0.017923821948986583
aF0.004931245908907265
aF0.006574627967243706
aF0.006283999748598034
aF0.00698400990286701
aF0.004130605891368329
aF0.01207227329615145
aF0.0030207207987480176
aF0.0068952531390084944
aF0.00013878739901757804
aF0.00425766030952928
aF0.0022091474138318415
aF0.005804849551242742
aF0.012326000501842642
aF0.010430637778419223
aF0.019977651418261497
aF0.005950161872213718
aF0.0040600775242216275
aF0.018466908178350623
aF0.006561868493698749
aF0.0068133531651070525
aF0.001985516640647104
aF0.0013573971788203771
aF0.00025853480137367607
aF0.0012815640443307114
aF0.053092350808371234
aF0.004199083252532831
aF0.0014368682788547704
aF0.010340923762935316
aF0.028205233805399393
aF0.0013770628589079258
aF0.009839359401879756
aF0.005337163558347918
aF0.0011104028402493082
aF0.004699831677530001
aF0.023274019215274357
aF0.01134014733768871
aF0.010355290490001666
aF0.003667590933551318
aF0.0074537724592408545
aF0.0030094261715376356
aF0.00911433391326588
aF0.011592386565023217
aF0.005231099933349787
aF0.0
aF0.0021925716457016514
aF0.002750165790890924
aF0.004202804982474221
aF0.014869605312382038
aF0.026908842679477078
aF0.017385492699357682
aF0.004151046057369222
aF0.005052776327891458
aF0.043132760595016105
aF0.0050140881480823735
aF0.0026903505511250056
aF0.000930877713442421
aF0.0007178235047767515
aF0.0003017371943203146
aF0.00022993076300024923
aaa(lp151
S'sub-0025888_ses-2_dwi_desikan.gpickle'
p152
a(lp153
F0.06859676775051711
aF0.0019047370438498423
aF0.002994781665054144
aF0.005458895539415565
aF0.022398576174385454
aF0.0008536454268551455
aF0.011570382056678456
aF0.005788617384638115
aF0.002926052788503708
aF0.004470770622888091
aF0.024049607466379037
aF0.007557226890176705
aF0.004019067551054202
aF0.0028173639649844992
aF0.008667488476082643
aF0.004470770622888091
aF0.012516919105289587
aF0.0013067266116095083
aF0.006372405387719843
aF0.00014072885505783607
aF0.003663215090728396
aF0.001575183214988485
aF0.007413390737252856
aF0.007373334453981118
aF0.008627068095439533
aF0.023949058131283146
aF0.004713577882026742
aF0.004332292658336087
aF0.010406334513437917
aF0.0076122718017891606
aF0.005297770333831139
aF0.0013047177241462472
aF0.0010383194526417034
aF0.00018302243366181986
aF0.0031736576474804246
aF0.05898975900164621
aF0.002952431985045577
aF0.002153271210248507
aF0.006849624488553104
aF0.031699904429663986
aF0.0015407232840791564
aF0.004922825447447685
aF0.01064420810178441
aF0.0019542684364753423
aF0.004860753842216539
aF0.04015268522258172
aF0.01331251499804968
aF0.012985089504316434
aF0.006771258240066651
aF0.009198932757582308
aF0.0030510896341204284
aF0.004552447056862163
aF0.009476199770893205
aF0.002613662647521084
aF0.0
aF0.0011006834981082778
aF0.0003600288127142347
aF0.004914409390118591
aF0.015835748207771734
aF0.017591008628354585
aF0.020821659296581134
aF0.004839792335431663
aF0.0034286795224318686
aF0.04725143753776506
aF0.006152246097960867
aF0.0032394616148673397
aF0.0011733280387437898
aF0.0009444580980986391
aF0.0002954680064654489
aF3.150391078092467e-05
aaa(lp154
S'sub-0025889_ses-1_dwi_desikan.gpickle'
p155
a(lp156
F0.04741413858166299
aF0.0029885642022531695
aF0.0031766398929101987
aF0.01563489885120056
aF0.02137879558486348
aF0.003524298913056625
aF0.003544620862048971
aF0.006963060743584618
aF0.0018664346179624012
aF0.006963060743584618
aF0.01898537447342199
aF0.0024760327533906606
aF0.006889094530133517
aF0.007181572152095812
aF0.008375865603989532
aF0.002272791781101741
aF0.0028954745983369567
aF0.005453902437800645
aF0.005667408190211698
aF0.0
aF0.0011339872308041767
aF0.004651258631963073
aF0.006965485673303686
aF0.00944188109863003
aF0.020526576683721764
aF0.01797883029892337
aF0.0025157171199821885
aF0.007242387284512047
aF0.03404375126539424
aF0.004760365565701307
aF0.0034991799343392547
aF0.0024198302350858314
aF6.38246463430757e-05
aF0.0007789977032136139
aF0.0007358822368949546
aF0.057716334922926424
aF0.0013611559168869986
aF0.0015234865142834864
aF0.00932025939590504
aF0.03826979400606588
aF0.0013223996796398257
aF0.01191089658141974
aF0.0068423101870051396
aF0.0039783774125199825
aF0.004467551885618286
aF0.04120126309823938
aF0.006958898681386416
aF0.019482964739000665
aF0.008369713184660963
aF0.014921569889010548
aF0.0017163078577544211
aF0.005317696323167733
aF0.005519511688077573
aF0.0007065799021573704
aF0.0
aF0.003891941286427749
aF0.0018273458786956082
aF0.004494627189268525
aF0.007609970300972521
aF0.026511416802473032
aF0.025612138943150977
aF0.0020628022832724787
aF0.00810159155798176
aF0.03596944761262058
aF0.003324661802877158
aF0.019266278390143655
aF0.006558309532009487
aF0.0
aF0.0007755145862629902
aF0.0
aaa(lp157
S'sub-0025889_ses-2_dwi_desikan.gpickle'
p158
a(lp159
F0.04628108329184515
aF0.0033496614360370674
aF0.004425306341517517
aF0.009238294995051665
aF0.02098834055970783
aF0.0021558843708430007
aF0.0068465825429295515
aF0.00811516880558348
aF0.0016141454236799093
aF0.00811516880558348
aF0.016822566133099688
aF0.00828549847642479
aF0.0077672760626466926
aF0.010854060832408164
aF0.006887235409843981
aF0.00332074265309146
aF0.005121686596770121
aF0.0037085020439408213
aF0.0007311011446236678
aF0.00029519890453394285
aF0.00029519890453394285
aF0.0037736368996145477
aF0.0030966858271561258
aF0.010825124865066836
aF0.014365436749846847
aF0.01113744024931809
aF0.002014792528936624
aF0.003704392582871049
aF0.026224573304270304
aF0.005910032717864528
aF0.006692726545985788
aF0.001791407085699716
aF0.0004189215068510075
aF0.00048720993414088043
aF0.00037727031335013373
aF0.050703304961884334
aF0.0015338796390837039
aF0.005344523207496303
aF0.029509448848659213
aF0.0282411274857347
aF0.0006511355799314566
aF0.012630438374599968
aF0.005615326005741272
aF0.0032031219806882612
aF0.006771650207181906
aF0.03788500125331884
aF0.00653770865147899
aF0.017694294547126174
aF0.006299896728460701
aF0.016265821721381805
aF0.0036032445938839327
aF0.00671742319032347
aF0.010304282502813239
aF0.003205165994804571
aF0.0
aF0.004629771076320343
aF0.003053208702324304
aF0.004071311830019483
aF0.008814751748846095
aF0.02600991090061561
aF0.03185589044782325
aF0.0012413858207545782
aF0.006846511819409804
aF0.05285976413191581
aF0.007191529307557888
aF0.0019929300198014816
aF0.005234530425843939
aF0.000533460154341755
aF0.0007556074691624564
aF6.73293032628071e-05
aaa(lp160
S'sub-0025890_ses-1_dwi_desikan.gpickle'
p161
a(lp162
F0.05385127235418767
aF0.002732703861186498
aF0.0014928486718110074
aF0.014756310319577555
aF0.018300451760225513
aF0.002274484721366248
aF0.0031681147771468327
aF0.0062126098810360636
aF0.004347721746359874
aF0.007942019658273644
aF0.0201665378677009
aF0.006695545537165058
aF0.010496654191506185
aF0.01017328757731737
aF0.007683567908751089
aF0.004565937639906965
aF0.0042713395972800335
aF0.005607476308430275
aF0.0017786160921003287
aF0.00024976449979382246
aF0.0009895218876166518
aF8.525149190110828e-05
aF0.005941843166058364
aF0.014822011895527143
aF0.013375216097196283
aF0.01561420735782467
aF0.0061484747638173975
aF0.004245237460870861
aF0.04279252970740036
aF0.007294859425694832
aF0.005293032179262456
aF0.0023092595605101133
aF0.0003931997079445094
aF0.00029042426740636464
aF0.0004429000893229159
aF0.0510503931901157
aF0.006429340982559862
aF0.0013915126047973866
aF0.007369901462959705
aF0.036090534854523654
aF0.0006459944845101318
aF0.0029616177993821336
aF0.006060089198709559
aF0.0034232004800300573
aF0.0032449320740570416
aF0.015801747965707474
aF0.0033638016345882414
aF0.007041111788503325
aF0.0071172730970378425
aF0.0060793126152223174
aF0.001830744253726437
aF0.004514185631920335
aF0.008359340186858084
aF0.0008907974738012164
aF0.00044977328660197435
aF0.0035223786095246023
aF0.0024152669272440768
aF0.001596027213389689
aF0.01993184625987106
aF0.009921609522527726
aF0.028468723714309703
aF0.0030852315865012385
aF0.005614390016479008
aF0.02356799559875195
aF0.007843878277869526
aF0.012769834797818846
aF0.006710851388074543
aF0.000824701235561827
aF0.0004424834569830856
aF0.00020707955490564185
aaa(lp163
S'sub-0025890_ses-2_dwi_desikan.gpickle'
p164
a(lp165
F0.052854784390314394
aF0.0035514562792116657
aF0.0011313265655065602
aF0.011610912902862015
aF0.023568085005395215
aF0.0007244401003509502
aF0.0029351328726441054
aF0.00686694271576309
aF0.003196157069958486
aF0.010741122403334954
aF0.018544962014033273
aF0.0035807041518713723
aF0.010559155519633118
aF0.006698993393806445
aF0.00974584055119987
aF0.0022784647540831046
aF0.004432187311430183
aF0.006413567246389568
aF0.0028521461336395468
aF0.00047169314932965555
aF0.001752633586098228
aF0.0012390738398283356
aF0.0059137561709016
aF0.021537111287296944
aF0.014185705400080018
aF0.01406917746294375
aF0.004402362709035585
aF0.008351187315184559
aF0.029762700940533387
aF0.0068939859705233275
aF0.009541701473154158
aF0.0034974506807814083
aF0.00026814499320893177
aF0.0008109871897221408
aF0.0035514562792116657
aF0.05107135809769176
aF0.0006767952232992293
aF0.00033793377807891673
aF0.005917373487310938
aF0.028068589467342153
aF0.0012861003783884994
aF0.003945482172465082
aF0.007467197776557281
aF0.002300867573510677
aF0.004673491455007445
aF0.013232570455040102
aF0.009493927942112538
aF0.0048208298411529715
aF0.006767266049424824
aF0.006552407654372289
aF0.0027562163144536187
aF0.0034786318896474163
aF0.006713116068062659
aF0.0020705122374519345
aF0.0
aF0.0032473055745159537
aF0.0040725153131128435
aF0.006889521368198032
aF0.015904887980213278
aF0.015904887980213278
aF0.022830076197071822
aF0.004873223994975269
aF0.0032473055745159537
aF0.014433566983126615
aF0.00418406384737312
aF0.002115699279888212
aF0.0016216493631062577
aF0.0015616622987320273
aF0.0009908564621754245
aF0.0004203682080919933
aaa(lp166
S'sub-0025891_ses-1_dwi_desikan.gpickle'
p167
a(lp168
F0.05712773133751325
aF0.0029589098058535918
aF0.003486884977934866
aF0.012638228876513724
aF0.052258226800532555
aF0.0
aF0.0033243616170943674
aF0.012866400051549027
aF0.001574671017829323
aF0.008285236283071522
aF0.019924212962411373
aF0.0018847784738094328
aF0.011714677851837822
aF0.010275057689257659
aF0.011294392300441712
aF0.0016264638056865946
aF0.0030863257606248613
aF0.015256887366013695
aF0.0020696198464967195
aF0.0
aF0.0007441386487157717
aF0.0002453515155020002
aF0.0054842099029509634
aF0.017673433786822883
aF0.023494453886822426
aF0.013925036305570286
aF0.001884626891968669
aF0.006615677819122716
aF0.01872734241202415
aF0.0020061245907022273
aF0.006978640024369529
aF0.0044131486694473
aF0.00012086521037927688
aF0.0009071492385922496
aF0.000895286566795442
aF0.0340021325181068
aF0.0050409782630009906
aF0.002261271776774306
aF0.007792373178586435
aF0.0250989212958307
aF0.0
aF0.005590836297750945
aF0.012255538452551203
aF0.0029753003626771684
aF0.004335904326086832
aF0.01848553734978264
aF0.0016513390305574517
aF0.010109310853278403
aF0.005246338768524342
aF0.014131668368552173
aF0.0031050646142984336
aF0.008164050467325929
aF0.0056009456663976545
aF0.001198950738474343
aF0.00017754699356564097
aF0.00232165884320345
aF0.0015290118408176764
aF0.002443223739708794
aF0.011040495442632752
aF0.010691461018216955
aF0.01843080368088502
aF0.003875189014735961
aF0.004608829836221887
aF0.027683429257487985
aF0.006642614372624918
aF0.009918617279783703
aF0.005027245883513175
aF0.00030053629181451457
aF0.0005371270449392449
aF0.00022658955144107994
aaa(lp169
S'sub-0025891_ses-2_dwi_desikan.gpickle'
p170
a(lp171
F0.052482048969954086
aF0.0009201332812328438
aF0.0021403962940646864
aF0.013336150200899993
aF0.04611417348991209
aF0.0
aF0.007571741646678609
aF0.0053598161542687955
aF0.0018235153001311087
aF0.004740753647205075
aF0.0289151570938087
aF0.0015414384381853
aF0.01092743946106463
aF0.009240054160994547
aF0.015872206710097
aF0.002691703434042787
aF0.005008916785628719
aF0.015859848784462293
aF0.0023351228275235725
aF0.0
aF0.003522569054395737
aF0.00047428874336412667
aF0.010742915334379462
aF0.02696009773476837
aF0.021455896383400577
aF0.016832005138611536
aF0.005716085012783045
aF0.015047799102403909
aF0.018554603366106676
aF0.01089527365389604
aF0.005970781599696447
aF0.006202446388624183
aF0.0001723304672597191
aF0.0014205701919130002
aF0.00019059370366923299
aF0.05190413656147251
aF0.0034490448134882
aF0.001749541629418125
aF0.007506927693512848
aF0.022815311049463508
aF0.00016594441448959085
aF0.002977910811816563
aF0.005383690488214305
aF0.003990071580947048
aF0.0017566590224653484
aF0.0188990556866391
aF0.0012794029584775274
aF0.013394126689921562
aF0.007369423756070319
aF0.01333080081704112
aF0.0018861203848300804
aF0.005669080688067693
aF0.0067681132878347336
aF0.0013804486658881862
aF0.00021220528522991844
aF0.0013705722817458285
aF0.0012794029584775274
aF0.003319130652189456
aF0.010213794795086818
aF0.013196642621943902
aF0.018960961753543764
aF0.0029148236764706694
aF0.00544004912072814
aF0.02014468081393916
aF0.0020500343774418504
aF0.0069413244940596044
aF0.0047591481141823384
aF0.00020709877852703574
aF0.0007601041980262739
aF0.00021269972667355816
aaa(lp172
S'sub-0025892_ses-1_dwi_desikan.gpickle'
p173
a(lp174
F0.025895089323994223
aF0.00290652520207123
aF0.005216684734808944
aF0.005902828361920716
aF0.02732578698734975
aF0.00014447668699586858
aF0.006113455165706296
aF0.0062901124949925865
aF0.005252886701271201
aF0.006400092283704841
aF0.016530049974193238
aF0.00445380625954126
aF0.010077681612758335
aF0.0016128260876581732
aF0.007810481138754095
aF0.010245140177815491
aF0.00412666650141376
aF0.0018552573725402585
aF0.0022524019292022982
aF0.00018497906736961953
aF0.0017178652945329417
aF0.0022632570791019636
aF0.001941936343719021
aF0.00657399364969694
aF0.009782179377123357
aF0.016478951719754352
aF0.0043945968024200945
aF0.005665856795254738
aF0.030376091781262462
aF0.0059043021652867775
aF0.02110886737502577
aF0.0013744314346191523
aF0.00022410688249913967
aF0.0002746992516813488
aF0.0007718155365291687
aF0.027713790922783133
aF0.002017787443974329
aF0.005048141795468612
aF0.007055243692521192
aF0.028684112975604168
aF0.0010750142036955702
aF0.0021327561970886865
aF0.007961220200485793
aF0.004338714791385349
aF0.005839884438534985
aF0.020796778578986895
aF0.0051041160754955964
aF0.004512287921208828
aF0.005219344918374612
aF0.005992204226016262
aF0.004844473143794289
aF0.0014832155076120587
aF0.005581507343158324
aF0.002851637506873974
aF0.0002575365184436946
aF0.0006677160789016791
aF0.0004467821935500781
aF0.007559756891400657
aF0.004507941651124122
aF0.018429803281690835
aF0.02054988085954778
aF0.0008987625037085006
aF0.0030415553823812495
aF0.0304706604802293
aF0.004338714791385349
aF0.009191761498666826
aF0.0051591124031294825
aF0.00022399411597546096
aF0.0006662634782600566
aF0.00038010005916125437
aaa(lp175
S'sub-0025892_ses-2_dwi_desikan.gpickle'
p176
a(lp177
F0.039153310362519594
aF0.00333776168129624
aF0.00421615710723761
aF0.005386082415830903
aF0.019464182114300996
aF0.00037525366236810425
aF0.004204691392123119
aF0.010741780364498783
aF0.003417574215370538
aF0.009641743078904174
aF0.01607037973070767
aF0.0065731301408001735
aF0.01109353118871504
aF0.008007062555496295
aF0.010481129712513915
aF0.004299009281478889
aF0.010315688872075728
aF0.0027625628475733384
aF0.004912596710809305
aF7.137388419063467e-05
aF0.0015986702549340116
aF0.0012804489847251179
aF0.0010688402890575886
aF0.009744881144400256
aF0.004989442141152529
aF0.006869664477466384
aF0.005187101987246048
aF0.0025525867641534184
aF0.008899856495350635
aF0.0048080499080848434
aF0.024857563181946398
aF0.0022413581945953777
aF0.0005221138867241886
aF0.00019601684618748112
aF0.004234066361810322
aF0.030601325116347878
aF0.0017774845455360098
aF0.004008563187227228
aF0.00640852291872388
aF0.02308511722468775
aF0.00026855454702490384
aF0.005287947372441931
aF0.007614236935332553
aF0.004378652345569647
aF0.005719171110236223
aF0.012709736513140972
aF0.005364146492466722
aF0.007484466768756358
aF0.0017956324653665894
aF0.006589462247463383
aF0.002914941667606336
aF0.002277954324610748
aF0.0029393847136363984
aF0.003237055834314505
aF0.00037697898297626693
aF0.0008268912457649277
aF0.003112330436500313
aF0.007644329307393093
aF0.003968443066974053
aF0.015852282506932904
aF0.03353545450937871
aF0.001444289486304114
aF0.0027422134792090846
aF0.02711457100778985
aF0.005983599020759344
aF0.004760292983175772
aF0.011380272365042294
aF0.00024865018471156576
aF0.00035603406121789585
aF0.00028798305983393296
aaa(lp178
S'sub-0025893_ses-1_dwi_desikan.gpickle'
p179
a(lp180
F0.034989791560505155
aF0.001312577525866283
aF0.0010076921024083575
aF0.01063491338745303
aF0.023984922962041192
aF0.0005779819782377328
aF0.002254694844312637
aF0.007147287145922864
aF0.002818860970986086
aF0.00358184792862142
aF0.0170784513872694
aF0.006789477777096715
aF0.013546893253012868
aF0.014659792931934475
aF0.009688350941226796
aF0.002833539435477461
aF0.002385049966334576
aF0.005091227973373515
aF0.0007806866403520447
aF0.0009969067164692755
aF0.002010734001801893
aF0.002717212665735409
aF0.003563537639295361
aF0.010941173236873564
aF0.006088965894498058
aF0.02018413693086197
aF0.0017710059326529626
aF0.005485864879262229
aF0.01254040478711873
aF0.0049451049230720585
aF0.010219976044867737
aF0.001312577525866283
aF0.0001340701397005554
aF0.0007178699193892679
aF0.0021401984390363032
aF0.04881324986738307
aF0.004885383577200718
aF0.0016713314174983916
aF0.013411054678048706
aF0.041134411063426024
aF0.0011427270776684076
aF0.008941343830022198
aF0.006632342247518328
aF0.0018057760949238338
aF0.0011513771970272232
aF0.03719434975889801
aF0.004264014029315593
aF0.012971630586663842
aF0.005334170764505807
aF0.016714870861235125
aF0.0009822388724335192
aF0.011365227118576097
aF0.015950349208553833
aF0.0005999985057513979
aF6.926683716965047e-05
aF0.002503740195701494
aF0.004014134460093461
aF0.011514340562536156
aF0.01986105310837662
aF0.024903577829871446
aF0.023428817148342728
aF0.004129804873730054
aF0.0097857542064348
aF0.018090319660076123
aF0.0018057760949238338
aF0.006719844448187733
aF0.005289617550611032
aF0.0001285538369937347
aF0.000519028648357381
aF0.0
aaa(lp181
S'sub-0025893_ses-2_dwi_desikan.gpickle'
p182
a(lp183
F0.05064117167053227
aF0.0024095261599708768
aF0.0020454391823084496
aF0.00843450980604286
aF0.026841486664020753
aF0.0005167002868280849
aF0.005475706260809213
aF0.007401428029587062
aF0.004212338201797939
aF0.004169237510475066
aF0.019309968319102894
aF0.00858435976479878
aF0.011558179503986039
aF0.011969091345620988
aF0.011181450837575558
aF0.0013804877591400237
aF0.0016934367274977526
aF0.004376881445598269
aF0.000588108841563847
aF0.002177116678348831
aF0.0015085591266044425
aF0.0015412138236532958
aF0.005057266326018243
aF0.006015339144659065
aF0.006556860255485344
aF0.02772219142278334
aF0.0021118987017032013
aF0.004877263928481632
aF0.00939583042480475
aF0.004685438316643837
aF0.007789530062600241
aF0.0015575597526518933
aF0.00013031299476312265
aF0.0005737705005811025
aF0.003542692084675976
aF0.04777317038415746
aF0.003722225648399942
aF0.0016545303810328034
aF0.005997835324110521
aF0.0269397477400046
aF0.0005696175819744566
aF0.007492551157236887
aF0.003624806421055927
aF0.006621056613166697
aF0.0012315514870416464
aF0.024556809526820614
aF0.005353980314520889
aF0.012442969302436985
aF0.005189502277984841
aF0.014535934299546466
aF0.0012315514870416464
aF0.007959897017925035
aF0.013274334596114105
aF0.006495087486249571
aF2.8417163967036088e-05
aF0.0018018071941219697
aF0.0031542051459695084
aF0.014356309900836299
aF0.010624721690742784
aF0.02827986353939802
aF0.03166874399858134
aF0.004433384878120356
aF0.009854119675184292
aF0.020539172597884712
aF0.006621056613166697
aF0.002287606580129248
aF0.003959774462716469
aF5.328218243819267e-05
aF0.0016448435875590132
aF0.0
aaa(lp184
S'sub-0025894_ses-1_dwi_desikan.gpickle'
p185
a(lp186
F0.047354449977564855
aF0.00015608121312579826
aF0.0013292852143664533
aF0.010431890576788935
aF0.031078952929984107
aF0.0033768084986051613
aF0.008344233453135832
aF0.006825873879349416
aF0.0016446496539693856
aF0.002374949685078409
aF0.01708525924575077
aF0.0016446496539693856
aF0.0141711257790932
aF0.007190188155490915
aF0.015271137244193352
aF0.0008253092624842646
aF0.008080240152760031
aF0.019894956094421098
aF0.0024933169626938025
aF0.0001953680022733731
aF0.0038380093782454023
aF0.013833944208667865
aF0.0062708890670311315
aF0.02736721374805154
aF0.01771044116917208
aF0.012216074598806347
aF0.007723147332443957
aF0.007175676105236637
aF0.016750145483380188
aF0.004417273814155684
aF0.012661923013183606
aF0.004848162235099457
aF9.27338824134371e-05
aF0.0017140685303856224
aF0.0014432371759815078
aF0.04785808421215695
aF0.0022516344623923347
aF0.0016174258091369595
aF0.005760831501999061
aF0.02806874941932126
aF0.0007777146819930176
aF0.01207279302829389
aF0.002810656485694847
aF0.0033703336494429253
aF0.0018136066378330342
aF0.02822190908988414
aF0.010742021563997842
aF0.006735071153812687
aF0.006132294256342804
aF0.009425708672651235
aF0.00045138256601899926
aF0.017768033734984146
aF0.009568155813724733
aF0.0031897958397851534
aF0.00039400759299130546
aF0.0034441929213482295
aF0.0024913555276140243
aF0.005439100551692054
aF0.007888942264916826
aF0.02094353919227165
aF0.03314406261984753
aF0.0035145013681600707
aF0.007710083178548554
aF0.01091901204615368
aF0.007201774923129014
aF0.006089798788899445
aF0.010122207209055462
aF9.27338824134371e-05
aF0.0014007485654782186
aF2.5073968206208314e-05
aaa(lp187
S'sub-0025894_ses-2_dwi_desikan.gpickle'
p188
a(lp189
F0.052108087057029226
aF0.0014712055360775566
aF0.003056848853527713
aF0.012912339574466138
aF0.03122906101956886
aF0.0020630570313182723
aF0.005203846874336657
aF0.007669481265083588
aF0.003007802722196129
aF0.00354204528974998
aF0.014627627539688604
aF0.001264413214210441
aF0.012724199337496661
aF0.0049197550938631296
aF0.011092660073357376
aF0.0008924787814947998
aF0.005744694001376024
aF0.022601523937551653
aF0.0008267154366898612
aF0.0001603433508804353
aF0.0009802048326126374
aF0.007005603922533804
aF0.0020460826989799983
aF0.027888485179920645
aF0.016352341124688145
aF0.012385378792194859
aF0.005652579403834264
aF0.011376559517783507
aF0.026229512614093328
aF0.0027349816938569715
aF0.019355912101654726
aF0.0032669735848943598
aF0.00014772981925753655
aF0.0006200088062184533
aF0.0002033769193175396
aF0.04189935548936484
aF0.0020916280616333693
aF0.0008883792760072947
aF0.006676804463859644
aF0.026901553549818477
aF0.0005877754655200073
aF0.003908643933378579
aF0.010872494905600688
aF0.003274276728900566
aF0.0019036023064920376
aF0.028377311606627025
aF0.009922201733937725
aF0.013788943627203074
aF0.007062783932484109
aF0.009139771152587897
aF0.0008419674808803723
aF0.007287549449078646
aF0.009559602125414074
aF0.0018781552359271184
aF0.0
aF0.006961816758760612
aF0.0011654190449786187
aF0.004163250828226123
aF0.007054538138038481
aF0.02299290114891839
aF0.023632509628464717
aF0.007263289923091411
aF0.013664466400630623
aF0.012043694698443371
aF0.011925781790566723
aF0.006017687825570189
aF0.012053651774932261
aF0.00023970252763614227
aF0.0006121237629672761
aF2.5073968206208314e-05
aaa(lp190
S'sub-0025895_ses-1_dwi_desikan.gpickle'
p191
a(lp192
F0.06091579209155861
aF0.003638642906610727
aF0.001291517330364538
aF0.028336759506159413
aF0.03811669258963888
aF0.00149639062222993
aF0.004797793107207114
aF0.006421946938748436
aF0.0018384524245314458
aF0.006421946938748436
aF0.022418860217833483
aF0.004915128036775416
aF0.010642890176301401
aF0.00809765499512796
aF0.011321394313552316
aF0.002790978373717752
aF0.006428428746344654
aF0.01216240535420575
aF0.005160911791989809
aF0.0007084011108383007
aF9.217486616574796e-05
aF0.0051292324242325415
aF0.000615401633136177
aF0.03202199860271915
aF0.030514781912233252
aF0.02034563158927863
aF0.002016192093832745
aF0.0035706791088482297
aF0.03668387364449228
aF0.005068992476379761
aF0.006156918039286129
aF0.0005954384907094986
aF0.00042803112764471294
aF0.0003836317135549872
aF0.0011039700522156891
aF0.03856106608712084
aF0.008588892056425126
aF0.0008494717091522176
aF0.007703662170971108
aF0.010103466559554785
aF0.00216185616652252
aF0.004268970319082475
aF0.011591803137423933
aF0.006218330031437194
aF0.005771033705468643
aF0.015016664839855661
aF0.005692815127355266
aF0.01235413826564415
aF0.006782830548802291
aF0.009304828807537156
aF0.004851236380506425
aF0.008540592380922795
aF0.0019425066613599088
aF0.0019710284699700938
aF0.0004824145272310367
aF0.000438736229964805
aF0.0012644301331899545
aF0.0012058473468653367
aF0.009284818171097385
aF0.009269576396463232
aF0.025240068191176537
aF0.006453926615877667
aF0.004066033145307303
aF0.017610170835782667
aF0.006446428823402815
aF0.0028353612922511554
aF0.0015015715560297777
aF0.0005427678317703893
aF0.0002471432138951321
aF0.00032538936408612826
aaa(lp193
S'sub-0025895_ses-2_dwi_desikan.gpickle'
p194
a(lp195
F0.04657767862802799
aF0.009869535220304645
aF0.0004978687295928192
aF0.019462575846025308
aF0.0325700548287082
aF0.0010285506252853296
aF0.0022366787455031204
aF0.003082629466982627
aF0.000929536041510686
aF0.00412308605654443
aF0.01551295127159833
aF0.0050094352780853104
aF0.009376436727010341
aF0.01005564983028279
aF0.012662378614838087
aF0.0016099669372220567
aF0.00740100170617165
aF0.0026757431558153705
aF0.001210630258521911
aF0.00033744507449158707
aF0.00033631520160516405
aF0.0037284061161448516
aF0.008308643261161455
aF0.0245171910301945
aF0.024957556906582166
aF0.016552399909977162
aF0.0020008566896029052
aF0.0022409298647145296
aF0.016471202936995895
aF0.004591464514471496
aF0.01712625562826165
aF0.007063512567382326
aF0.00027247908486787315
aF0.0004958756029213557
aF0.004715838849753469
aF0.04403640485226266
aF0.004518626393280841
aF0.0009381718652155686
aF0.010132953849762821
aF0.015866238849608697
aF0.0020384273003333955
aF0.002812728636641894
aF0.011394413880309028
aF0.005158903574596845
aF0.008759135757598397
aF0.019641171986227873
aF0.00386710277845703
aF0.0061324667224275315
aF0.002269547001676143
aF0.00971460598876976
aF0.005537557361422327
aF0.005784825601732939
aF0.005064044948022511
aF0.0023355848354025682
aF0.0005011150464925749
aF0.001146922474808496
aF0.0004611622056769452
aF0.0032993866990652216
aF0.017059324012579404
aF0.019537649859302057
aF0.031119259189609415
aF0.004676210961127855
aF0.0027629704832909784
aF0.038989957544290896
aF0.007884961974980897
aF0.004035310811039152
aF0.0011327203114584665
aF0.0005367571435798762
aF0.000494843557503404
aF0.00010186299583772127
aaa(lp196
S'sub-0025896_ses-1_dwi_desikan.gpickle'
p197
a(lp198
F0.04247539710779575
aF0.0036791849612325205
aF0.001299507002317134
aF0.018730579219940417
aF0.023534757483654335
aF0.0018723284388246024
aF0.007895389857865726
aF0.005862611442542042
aF0.003191041975614282
aF0.00892045202608963
aF0.019953274753776215
aF0.011533907276832874
aF0.007052672488947882
aF0.003160802657120644
aF0.004470988023714475
aF0.004858302265448635
aF0.010115627407035305
aF0.0026124029606038233
aF0.0020809820940971223
aF0.0002755603778621681
aF0.0
aF0.00046880021524210437
aF0.003049231356525533
aF0.010420800463589229
aF0.008689795798265327
aF0.008220877235637625
aF0.0017432687197426492
aF0.005416676417299765
aF0.03638583346050582
aF0.006081547599583365
aF0.006089010653339769
aF0.001110125177782375
aF7.205780863069866e-05
aF0.00036607089036756556
aF0.002096361029777948
aF0.05938105840974978
aF0.0035284937904839077
aF0.0018076467349190304
aF0.021199939902748356
aF0.029956735089604968
aF0.0006588722010506489
aF0.008316477495224373
aF0.006528576789083214
aF0.0062833477425108765
aF0.0024195561943901505
aF0.025548989193060197
aF0.006806382245722604
aF0.00732607261126535
aF0.0045871550597541754
aF0.006118199372060602
aF0.002204722551575721
aF0.0030835930454054202
aF0.005297291912331442
aF0.0033035997964689415
aF0.00012951668961899143
aF0.001771548685671668
aF0.00141149063235743
aF0.000616442370459477
aF0.010402089324323136
aF0.011450180416639455
aF0.028387366352595766
aF0.003216676916592449
aF0.003654495774978562
aF0.02214713779699681
aF0.0064486637496619335
aF0.010159679045369465
aF0.0024363417269176427
aF0.0009118832417331923
aF0.0003669032334846487
aF0.0031718816991870096
aaa(lp199
S'sub-0025896_ses-2_dwi_desikan.gpickle'
p200
a(lp201
F0.04263147012730125
aF0.0065391858527919415
aF0.0014380043392439171
aF0.020255499970119415
aF0.029309138373991225
aF0.0021272217755735428
aF0.0057701894601519445
aF0.0062326480456222876
aF0.0020988077749094624
aF0.008256254019169051
aF0.014614200766622554
aF0.0063411367315665814
aF0.01123087781071805
aF0.006417850835315113
aF0.005826144809330861
aF0.0054599547481934555
aF0.0025484732735045197
aF0.003842073195224056
aF0.0029223462792187507
aF0.00011689787904621667
aF0.0008608451184613138
aF0.0021894904968031465
aF0.005971018656802743
aF0.019216184472286717
aF0.011708161617717986
aF0.012788931816151186
aF0.0030469869841315174
aF0.003651353757613333
aF0.0345915599719984
aF0.005425302998774455
aF0.012176150067376532
aF0.0009179405588710109
aF0.00018527667984189722
aF0.00047566433059888756
aF0.0023367556357187704
aF0.06540169267879226
aF0.00671398969891919
aF0.0015579866960683789
aF0.012874287386208692
aF0.03977900116643855
aF0.0014505181624414473
aF0.009418538607543438
aF0.006662992932339988
aF0.0034561251378415676
aF0.002645990325820437
aF0.025434514697495532
aF0.004786747754852586
aF0.005862798120698463
aF0.00698670628425818
aF0.008741484220225745
aF0.0014229956222631924
aF0.0054537476364778644
aF0.008795722393147867
aF0.005044710846332925
aF0.0
aF0.0022875036672241095
aF0.0038456876971867536
aF0.0026934395132518067
aF0.007823970469519437
aF0.016076536334199466
aF0.03299911218830632
aF0.0045588316051635835
aF0.0025328544560559037
aF0.011701786015914609
aF0.0042600107360024975
aF0.004622602904256337
aF0.0033734989325404515
aF0.0015090618480448912
aF0.0007333888112491597
aF0.0017333135597521919
aaa(lp202
S'sub-0025897_ses-1_dwi_desikan.gpickle'
p203
a(lp204
F0.04770397038883226
aF0.0035321784869946833
aF0.0019381075451745135
aF0.008102528046188
aF0.03740177153042854
aF0.0033738514722487078
aF0.0064997073852254205
aF0.016988583803569313
aF0.0012132987412016116
aF0.0062157257837160305
aF0.016034577125056265
aF0.0026409533813341038
aF0.008788657684886852
aF0.005822964788736422
aF0.010095768652606904
aF0.002207833588794267
aF0.006678194034349584
aF0.009067665096093917
aF0.00416340898916263
aF0.0001883547919353546
aF0.000906463526593389
aF0.001286627893555831
aF0.0011318226805064294
aF0.011743967971353922
aF0.00617116095214158
aF0.008602576539375259
aF0.002002202040356594
aF0.008938509483456527
aF0.02709240068658219
aF0.005910881133448024
aF0.013740810744417952
aF0.0027891830883659684
aF0.0
aF0.0004475750639433504
aF0.001988589891353559
aF0.07575776572942033
aF0.004986809543900373
aF0.002183155621439812
aF0.007295136773172515
aF0.04297963754958251
aF0.0030151686701697165
aF0.004876465401077059
aF0.0061410619234475656
aF0.0005714848074085832
aF0.0014509308492477032
aF0.034448318406874213
aF0.0027708821279584677
aF0.008667975691461363
aF0.010868989654552082
aF0.010058974556174011
aF0.0019297990503787282
aF0.004128076531952027
aF0.009216428615260144
aF0.0030350047923099633
aF0.0014956190620202118
aF0.0023048730633119206
aF0.003119610156720252
aF0.0034195732082224735
aF0.011946319927241746
aF0.020883614206931918
aF0.024112177979730302
aF0.003930340218432285
aF0.007643984202497691
aF0.018032996632110665
aF0.0021684940077169386
aF0.010046379629793318
aF0.010421154229034103
aF4.736193994506015e-05
aF0.0005704014655421305
aF0.0006967268328820846
aaa(lp205
S'sub-0025897_ses-2_dwi_desikan.gpickle'
p206
a(lp207
F0.05021218409896483
aF0.003240469497760923
aF0.005293510755447292
aF0.007757999926190215
aF0.0341223586810327
aF0.001702666760303948
aF0.013738130412517972
aF0.007417764390855323
aF0.00206274473646755
aF0.005120626100249031
aF0.0155510313953333
aF0.0036429776809031897
aF0.006545122612966305
aF0.009376238897724994
aF0.009795565354852548
aF0.0013054297634100909
aF0.010134618172455765
aF0.009848194505306255
aF0.003497566178188945
aF0.0003134499298182163
aF0.0004136741525564673
aF0.000816090941963259
aF0.0016385773332051434
aF0.00472453209958973
aF0.004247160057493028
aF0.011077288562546328
aF0.0016047783000733738
aF0.004150789053578148
aF0.03160377968484389
aF0.010214810625946494
aF0.006477639076533546
aF0.00141034194342346
aF0.00017050298380221656
aF0.0010077348972654641
aF0.003964492685381708
aF0.06781290922621536
aF0.0036179690998397905
aF0.0027848042353462335
aF0.008421444595594987
aF0.04636968620477478
aF0.002848790650684984
aF0.00719345413087209
aF0.00718172089684424
aF0.001789329299339443
aF0.0015440303198484358
aF0.041388005301397274
aF0.004095683806389546
aF0.006218763539491054
aF0.0067239292721703
aF0.014443861275469979
aF0.002479571652742575
aF0.0029624908988533454
aF0.015032011031300325
aF0.001823792372902379
aF7.476893666151978e-05
aF0.0007810034702858171
aF0.0055501217759326765
aF0.0008898281255148215
aF0.01407306948406082
aF0.021378827742280577
aF0.021990048384139843
aF0.0024893317437916073
aF0.0029280401455283513
aF0.02638808429494562
aF0.002297276538565006
aF0.0037789943075801327
aF0.013681149095393615
aF0.0007251798622426069
aF0.0011783027963817292
aF0.001200479145594842
aaa(lp208
S'sub-0025898_ses-1_dwi_desikan.gpickle'
p209
a(lp210
F0.03807221582363637
aF0.006124200760540311
aF0.00328338294457572
aF0.007421839895896312
aF0.022965354933177397
aF0.004410516573367726
aF0.004329816835454591
aF0.006866495748501894
aF0.0007735694892855741
aF0.00768692964476384
aF0.016630940000190164
aF0.0021406157934962845
aF0.009216896351526609
aF0.009223738526218227
aF0.00667735201308804
aF0.0031081731245400403
aF0.0031313371256316996
aF0.007985378994778074
aF0.0034450895478571296
aF3.278903534658011e-05
aF0.0023175757280384014
aF0.0003303279593830139
aF0.00108850554514655
aF0.00831120358534608
aF0.015089134293320833
aF0.004591031647573731
aF0.004074616024428741
aF0.005177487907086504
aF0.026468435019438984
aF0.0033020645128279567
aF0.009069738401146865
aF0.0017487099944053658
aF0.0002933590367367294
aF0.000592990059102591
aF0.003938524187108746
aF0.05378896822878585
aF0.004473329466619743
aF0.003977452441318951
aF0.011557776977206925
aF0.01891962078342453
aF0.0006593408889557528
aF0.007998084521242958
aF0.013413535256419898
aF0.007291527430946258
aF0.0027838727227643533
aF0.031083942491337797
aF0.004244804502238288
aF0.006779582928826763
aF0.007839864159203423
aF0.013070274672148097
aF0.0024689703475812884
aF0.010128643006805478
aF0.01629690903828299
aF0.005043906361503483
aF0.0
aF0.0021511423230323825
aF0.0008501312012294409
aF0.008134824871845376
aF0.001163920023527294
aF0.02043973045624484
aF0.025006291210003608
aF0.002525001814135988
aF0.006459133202032348
aF0.03326680190863901
aF0.002482391036310185
aF0.0020362023522670194
aF0.009960869201078611
aF0.00018581872801821651
aF0.0005099135381967217
aF0.0004698640434983701
aaa(lp211
S'sub-0025898_ses-2_dwi_desikan.gpickle'
p212
a(lp213
F0.03975093818351602
aF0.0011551213796307893
aF0.001581121435493186
aF0.011031940954113917
aF0.0385267167276184
aF0.0021935550624127688
aF0.008981623087580047
aF0.004870138912980204
aF0.0013194763116542736
aF0.00441484600940746
aF0.027473609345757852
aF0.002488139077406743
aF0.009636899439679169
aF0.008082957099371676
aF0.013921494199684543
aF0.0024256908837852645
aF0.0022210938767265073
aF0.009849940462808909
aF0.0035485277013539546
aF6.831049030537521e-05
aF0.002603771834659371
aF0.0015114650448259596
aF0.002000947624138214
aF0.014784173101161957
aF0.015089967148102455
aF0.012083823588582947
aF0.005496546013026866
aF0.005789038631841738
aF0.033444159445685656
aF0.0029215002574633194
aF0.0032550814625294596
aF0.009565226679747598
aF0.00020098974514500315
aF0.0007095833502483119
aF0.0007571025539072114
aF0.03838486721020581
aF0.0019196830589756795
aF0.0007648164436906902
aF0.011794689453948206
aF0.009739386644279919
aF0.0013990762799031085
aF0.009874489439698559
aF0.012076082163463822
aF0.0031644586165025922
aF0.005692555597438298
aF0.03040692287026119
aF0.005415062910314951
aF0.010479726737081122
aF0.0133653336617493
aF0.009440747471185803
aF0.0015747450611571707
aF0.011368520503000721
aF0.008565548040440898
aF0.010991113206736779
aF0.0
aF0.0032444098373103493
aF0.001279165232640243
aF0.008642840751468006
aF0.005556460281361878
aF0.021500572673061488
aF0.016946391868000704
aF0.005069939871309466
aF0.007510656663261745
aF0.036411840196129044
aF0.0053874828832786185
aF0.0012314461604426448
aF0.0019196830589756795
aF4.397894423469871e-05
aF0.0009341011667842546
aF8.971690486069585e-05
aaa(lp214
S'sub-0025899_ses-1_dwi_desikan.gpickle'
p215
a(lp216
F0.03903517508556326
aF0.0006910899351820898
aF0.000624707245644828
aF0.018095220898227682
aF0.026842586557117718
aF0.0011713921132948152
aF0.00342790934132123
aF0.007608163399635512
aF0.00301288361056847
aF0.004752438080210472
aF0.02403651761628588
aF0.002928927355703147
aF0.008295738313956667
aF0.01419252322550934
aF0.0017354904507173145
aF0.002083284425688723
aF0.007555548340515837
aF0.0012480140811027198
aF0.005105792337193816
aF0.0003099003962449836
aF0.0010707514102461981
aF0.0030531227792999645
aF0.0026253721491225203
aF0.017327375193747344
aF0.010612073699719603
aF0.009762429374253855
aF0.004066934165653773
aF0.004688010900881238
aF0.03781218502882664
aF0.005072466203283737
aF0.0033769456443082228
aF0.0009647253054531372
aF0.00017760727479397553
aF0.0009012020716766581
aF0.0004049082700314742
aF0.03931085710307659
aF0.001366606702528519
aF0.000624707245644828
aF0.020322507211814205
aF0.027576913014497734
aF0.0031047760956349293
aF0.0037847434806700924
aF0.010293141647627692
aF0.0197424980279308
aF0.004414871416471283
aF0.0327589303139736
aF0.002311664751708897
aF0.008655114328119792
aF0.004810891062725722
aF0.010191938376030094
aF0.002901154303072614
aF0.0031566013036362413
aF0.003001998667965296
aF0.0006679199601695215
aF4.736193994506015e-05
aF0.0050375250070484896
aF0.0003611418392644939
aF0.002591841455782267
aF0.009144342717775962
aF0.021463084754440025
aF0.02081395115629645
aF0.009633907949812762
aF0.01084479839884301
aF0.040807025057289906
aF0.007241174361951788
aF0.0020047479345091487
aF0.006781449750324084
aF0.0005301154278136375
aF0.00039238680957226604
aF0.0003173525355011973
aaa(lp217
S'sub-0025899_ses-2_dwi_desikan.gpickle'
p218
a(lp219
F0.0525598151190475
aF0.0015092480560019894
aF0.002027981463748468
aF0.026189775501723408
aF0.03536860863123469
aF0.002706472400455635
aF0.002527041260639632
aF0.007690639546559238
aF0.0038317397366091797
aF0.005707996100940259
aF0.03060877139318837
aF0.0014350879980153134
aF0.009599402176338315
aF0.01445731537079778
aF0.0017859726935786397
aF0.00376898454659231
aF0.010025471937723194
aF0.0013093809722230483
aF0.006149747788081662
aF0.000246145466733702
aF0.0004309375790772225
aF0.0007740076962743047
aF0.0016337010734499354
aF0.021975616150340115
aF0.008309064983203667
aF0.017003676505468593
aF0.002344761006817176
aF0.00815204842007279
aF0.04143360366025877
aF0.007921718298190565
aF0.004997707575088479
aF0.0010463064966738473
aF0.00019181585677749362
aF0.00058325921497277
aF0.0004858530696662313
aF0.046131176266898305
aF0.0007695823681144588
aF0.0025031348040848805
aF0.012819553635608697
aF0.028621628262511082
aF0.0017858922836791688
aF0.012723624246632603
aF0.008997897262190049
aF0.004091385373497905
aF0.002520749394968644
aF0.024708616539188426
aF0.004782882129717403
aF0.0071043066237352894
aF0.006784245489307311
aF0.008962753712732707
aF0.0014772792597995707
aF0.012049173025542021
aF0.008335806521558393
aF0.005368587849253894
aF0.00013427890665742328
aF0.0014519258884445393
aF0.002653425648197601
aF0.0026367477463274634
aF0.009170193004933068
aF0.01448166560362511
aF0.019762730451462828
aF0.004057732841315844
aF0.00712598739104386
aF0.024972774219530435
aF0.009240952725307767
aF0.0021999406823152087
aF0.0035963680163762185
aF0.00045112247797669786
aF0.00033811877936255376
aF0.00021053153935583841
aaa(lp220
S'sub-0025900_ses-1_dwi_desikan.gpickle'
p221
a(lp222
F0.053150550434499996
aF0.0015388739475620133
aF0.0039309066178907824
aF0.009659499342280876
aF0.03805911393939349
aF0.001475962833317837
aF0.0037969626513702924
aF0.007593234491649905
aF0.0013635792448890827
aF0.0034278231792974644
aF0.01901440969758765
aF0.0037304363100689416
aF0.01691747135779772
aF0.005066274728536567
aF0.016659607031194207
aF0.002591511190679127
aF0.003620203516333231
aF0.006706076764381116
aF0.0028934566967506506
aF0.0
aF0.005606715286570417
aF0.0037304363100689416
aF0.007260857758957601
aF0.010467843688162929
aF0.006695892583731294
aF0.025594424393157903
aF0.00227707234222147
aF0.017488982615098774
aF0.02260978177781894
aF0.010855065186127569
aF0.004242997802352607
aF0.004869293491864571
aF0.0002685331182707673
aF0.0009058056584546098
aF0.0005549108438599422
aF0.03240768979133661
aF0.007143255846486816
aF0.002179450502623466
aF0.005637174575692845
aF0.022244197706978674
aF0.001174184149539267
aF0.008240149503626023
aF0.017257413009889748
aF0.0031263822142289653
aF0.009354979936996747
aF0.02370398301169417
aF0.0067525102846053555
aF0.009250782760911793
aF0.0033441016195360925
aF0.009448086589013643
aF0.007272964796039299
aF0.015727609101438923
aF0.006142389540471973
aF0.0022272018516960998
aF0.00010099970351132332
aF0.0005735732062111987
aF0.0014515451874440412
aF0.004227451109213243
aF0.0051207491322836545
aF0.009118039515631893
aF0.020948992344721678
aF0.0017138781723262224
aF0.002863727529229077
aF0.01808151740359243
aF0.0031263822142289653
aF0.01208015918861645
aF0.0023589038089162177
aF0.0005544061200680301
aF0.00021979612584396702
aF0.0029288533539912503
aaa(lp223
S'sub-0025900_ses-2_dwi_desikan.gpickle'
p224
a(lp225
F0.06574532002755643
aF0.0006757920694223273
aF0.0029085012770174953
aF0.015903766081804337
aF0.04192663865222009
aF0.0008798640533503548
aF0.003604671542577806
aF0.00548576399302288
aF0.001377955693754225
aF0.0019348654485449334
aF0.021148174349505965
aF0.004515818345953195
aF0.020590580771858862
aF0.00451758521966617
aF0.007046038863919975
aF0.003271424899605117
aF0.004829922984456031
aF0.010083000218647819
aF0.0031914206647044936
aF0.0
aF0.00654450079827385
aF0.005498653800087653
aF0.008384891851338453
aF0.013344195944808276
aF0.01393660535364796
aF0.024098633711913946
aF0.001733234440179513
aF0.018012603572504962
aF0.02398680753455431
aF0.01369907444391848
aF0.002722138629918603
aF0.009240589615799164
aF0.0006505440658674656
aF0.001516885013122595
aF0.0002389305778052581
aF0.04875485209142778
aF0.0043269502166996855
aF0.0011082341040586285
aF0.005293239095518121
aF0.02482007858938456
aF0.0012039684948309682
aF0.007945017999190961
aF0.0133806401001065
aF0.0032909055637326047
aF0.003907857971077815
aF0.015323759912183196
aF0.007210579593806851
aF0.008649733861743246
aF0.003842153345012234
aF0.007741943272469734
aF0.0036169888818393006
aF0.0051848547102633594
aF0.004468461138332347
aF0.0018783657633637675
aF0.00048110587718283056
aF0.00011901886882091642
aF0.0011056532192619283
aF0.004998335187824419
aF0.006651406115816831
aF0.01344807802702016
aF0.024865402122343817
aF0.0015500635886456864
aF0.005064275676156736
aF0.023141743556109547
aF0.0034389419862788312
aF0.0034143909689362934
aF0.0018278153194886586
aF0.0005461523149215029
aF0.0003162580528309429
aF0.00043584537513601126
aaa(lp226
S'sub-0025901_ses-1_dwi_desikan.gpickle'
p227
a(lp228
F0.09326680502137198
aF0.0006322348039204704
aF0.0031243916467361575
aF0.014061925828493011
aF0.04151931242741655
aF0.0033557937286127974
aF0.004817299395656564
aF0.003897484623761782
aF0.0006322348039204704
aF0.001981880110553509
aF0.040310388532426945
aF0.0029567581196254526
aF0.015510693209817503
aF0.00873403915561574
aF0.01234341062124623
aF0.0009500153580783543
aF0.008758894941782093
aF0.02218625475454366
aF0.0020386697294428762
aF0.0003142956787458066
aF0.0004382978487837823
aF0.0011867781115563693
aF0.006898799506513994
aF0.026674283495351024
aF0.028539023909528047
aF0.009275864792496
aF0.0049829910924250745
aF0.00938449799717574
aF0.016511972328021388
aF0.004228024343967969
aF0.007682479660767102
aF0.003670629218188786
aF0.0003085469656855244
aF0.0007082349657311759
aF0.00034066013504699725
aF0.03380971314840464
aF0.0022536292841350038
aF0.00041893090439734833
aF0.005662340342620857
aF0.02625751400487689
aF0.0009903024035068497
aF0.008098880119960178
aF0.012585419154274587
aF0.002777051892981094
aF0.005396227262158592
aF0.027965672213526912
aF0.009096896986178
aF0.009684080723403994
aF0.005273486249963743
aF0.007389455610050362
aF0.002249251469577067
aF0.004936579567037096
aF0.007654082620927917
aF0.004789021630822414
aF6.08939227865059e-05
aF0.003935431755566752
aF0.000178230116743938
aF0.0013130223375638966
aF0.008753689422465535
aF0.0097848832940319
aF0.019997775048828145
aF0.012028227083210568
aF0.008448886907561067
aF0.011840320035898895
aF0.004852328341198176
aF0.011247629369380523
aF0.0005401212503081208
aF0.0006153841202166387
aF0.00025601540878170045
aF0.00012154515240248591
aaa(lp229
S'sub-0025901_ses-2_dwi_desikan.gpickle'
p230
a(lp231
F0.13236035569055848
aF0.0007716431262084696
aF0.003915396789352014
aF0.011045270335120844
aF0.062377999095377064
aF0.0021054227575966703
aF0.005015716186875245
aF0.005156664554679851
aF0.0007716431262084696
aF0.002455642110678301
aF0.027936305016794765
aF0.002972790765323204
aF0.008412863396003414
aF0.005661578911927114
aF0.006928921104715869
aF0.0009628851540616247
aF0.008840771812973993
aF0.015740548153214736
aF0.005681009127940529
aF6.596841635204807e-05
aF0.0004991610170638303
aF0.00039697423212373166
aF0.00816642551129963
aF0.026651118925212443
aF0.01720153469674537
aF0.011017390393172977
aF0.0029826427537840107
aF0.004999822719014227
aF0.009604028360544315
aF0.002107322577442612
aF0.006199725253433694
aF0.0004916297115785607
aF0.00016699597447936303
aF0.0006270536321687217
aF0.00025067584210806715
aF0.038605258403526826
aF0.0022149257303719547
aF0.001643145525278739
aF0.008183047731595314
aF0.02336533257449508
aF0.0017894754931354047
aF0.004548760742528316
aF0.009328690798641449
aF0.0007280401383228612
aF0.00192607257075553
aF0.02127260149072594
aF0.003109841251639478
aF0.009254482601251451
aF0.00553824065207849
aF0.008104566656675022
aF0.0020193813535403725
aF0.005428396304669128
aF0.011047130985120618
aF0.0017205204544735965
aF5.886412536028905e-05
aF0.00109928385023229
aF0.004298991790232112
aF0.00322865636502708
aF0.013135687783032644
aF0.013928653989177957
aF0.021663043066314044
aF0.003080911010638856
aF0.006525622558275612
aF0.023647157309461046
aF0.0016355063442135085
aF0.005396315535491503
aF0.0015814499326352721
aF0.0
aF0.0003083494132087483
aF0.0003145030098226238
aaa(lp232
S'sub-0025902_ses-1_dwi_desikan.gpickle'
p233
a(lp234
F0.048503368046303875
aF0.001789320785585765
aF0.0033284303759369724
aF0.011427445598386706
aF0.03344692352580073
aF0.0019475681470345902
aF0.006431765667676698
aF0.005643273051378044
aF0.000638166146502174
aF0.004490703534483944
aF0.028831185827706194
aF0.004750684119600713
aF0.009565247036839898
aF0.010277715428219215
aF0.014294694788578479
aF0.002464458900263427
aF0.016704297124942317
aF0.007144073680873644
aF0.0014426026289318977
aF0.00022617778372254076
aF0.0021316601031805076
aF0.0013848198029817254
aF0.0034348782919214602
aF0.008533857592871875
aF0.01210622231525771
aF0.011962713820956778
aF0.002904540863548587
aF0.004322054806247029
aF0.039874941399522516
aF0.0013416122855739276
aF0.009492951195545869
aF0.0012292819317674109
aF0.00015324970567937317
aF0.00044224540936269095
aF0.000578973683389212
aF0.06738043591407654
aF0.0037894498536310216
aF0.0033229599651469328
aF0.012257221279972577
aF0.02921542646103199
aF0.0065767212489433015
aF0.005143403292037714
aF0.004404423141277535
aF0.0008464709292565054
aF0.001617724477556386
aF0.039972346288788284
aF0.006053541573443974
aF0.012603331046439407
aF0.009246839032375161
aF0.011510039805901994
aF0.0013269008190480575
aF0.024378403142190412
aF0.01175249354804667
aF0.001300260419976081
aF0.0
aF0.002120605496365504
aF0.00029080227306960984
aF0.0021273545244165585
aF0.010070812368435088
aF0.021233485295080994
aF0.019165935654459534
aF0.006563913797027192
aF0.0083843344489557
aF0.026046055594030355
aF0.0009674528258514604
aF0.007496833692721612
aF0.0072359178940117385
aF0.00011603675286539736
aF0.0014973374636417993
aF0.00019701472518532845
aaa(lp235
S'sub-0025902_ses-2_dwi_desikan.gpickle'
p236
a(lp237
F0.07960057393601871
aF0.004223056968368585
aF0.0022922398287294862
aF0.007895310300930877
aF0.023890229196061832
aF0.002242501342858431
aF0.006067205459068047
aF0.013057364094443996
aF0.0013008351256089267
aF0.006539792715223452
aF0.030372463775080308
aF0.002087020301997988
aF0.010101264619727946
aF0.009080669861163009
aF0.013970905097474543
aF0.0029247644834860726
aF0.023537881042132402
aF0.006077365128758449
aF0.0008822048879745589
aF0.0
aF0.0015502923619972269
aF0.0024576382977926263
aF0.004222334680994015
aF0.0070982314896976
aF0.01289887723840075
aF0.02625090121919444
aF0.0032881790195264855
aF0.006592774495261338
aF0.019192900257690777
aF0.004142319498873677
aF0.005199760925701525
aF0.001502877203333012
aF0.00015561780267662619
aF0.0004312663547840944
aF9.810190060679002e-05
aF0.0539818109312493
aF0.0010203926149402584
aF0.002507056890264622
aF0.022441338120227656
aF0.02635178575746194
aF0.005127359964698255
aF0.005373016792459456
aF0.007244965838471334
aF0.003208036537186129
aF0.004293055072950651
aF0.034751290097217676
aF0.0011094806094846866
aF0.00997824625404162
aF0.009293936443981902
aF0.010794046855754635
aF0.0020666586616851336
aF0.010682344886731728
aF0.010542911319184405
aF0.0011398997091795252
aF0.00017904601294021135
aF0.0016619799875198554
aF0.0008845414675960774
aF0.0012738060390772808
aF0.00574279923433088
aF0.024008559061197175
aF0.030711767454389815
aF0.004621656191315184
aF0.00581188380571817
aF0.034029848442577205
aF0.003208036537186129
aF0.007379982604049307
aF0.0041208119538333424
aF0.00025342617865560546
aF0.0012240005316214485
aF0.0005865547901375982
aaa(lp238
S'sub-0025903_ses-1_dwi_desikan.gpickle'
p239
a(lp240
F0.041704389892488015
aF0.001241607396169915
aF0.0015948116745859104
aF0.016120665852478327
aF0.036252680880974074
aF0.0012995625576942102
aF0.004692849846799885
aF0.005653093653254015
aF0.001241607396169915
aF0.0045865050386193285
aF0.022408192076723486
aF0.0033569131075974227
aF0.01238959634824637
aF0.004302927546682735
aF0.01212979550562613
aF0.001735993197314131
aF0.005050578233299876
aF0.008715019495604165
aF0.0020284146051601695
aF0.00016779658723392737
aF0.0020563246763042236
aF0.00222209559182764
aF0.006803225354861324
aF0.012768277841894271
aF0.022061861201301523
aF0.016627715862468168
aF0.004193096929780991
aF0.005854483373501776
aF0.033222069776902466
aF0.00558725284329008
aF0.011131088323818329
aF0.005720300398764071
aF0.00032516164524220366
aF0.0005024207656929499
aF0.001416270673509664
aF0.040864095349269915
aF0.0042392185847987
aF0.0015948116745859104
aF0.0051621847736310015
aF0.029661078767512592
aF0.0026378959553253656
aF0.0043586110213645855
aF0.008931866558725046
aF0.004096357500707819
aF0.0034515543906572218
aF0.019491030165422866
aF0.0063079330812487455
aF0.01604417699723576
aF0.0035752100236383436
aF0.005376727014250804
aF0.002644953864707766
aF0.006416012286305674
aF0.006768981138250218
aF0.001015102697833057
aF3.875067813686739e-05
aF0.002083796615485769
aF0.0003041523814902055
aF0.0019692330700753773
aF0.009400354101027344
aF0.014281717009906192
aF0.015915835089105698
aF0.0037338115495063463
aF0.006092341774545237
aF0.03230245619388227
aF0.00491754421869123
aF0.006767342917102107
aF0.003239724896865997
aF0.00030275209303342297
aF0.0003127057839535468
aF0.000180387423530726
aaa(lp241
S'sub-0025903_ses-2_dwi_desikan.gpickle'
p242
a(lp243
F0.04958603333286083
aF0.0034372019860614755
aF0.0027976939583064576
aF0.014654799059405636
aF0.03617873064381696
aF0.00029468118292320743
aF0.005784977230625825
aF0.007140359803069853
aF0.0034372019860614755
aF0.006391328933445624
aF0.01500435052421013
aF0.003714103298731411
aF0.01262339719453052
aF0.006845327461925275
aF0.012481331347556733
aF0.0017239812557281716
aF0.0034254890183264327
aF0.010415235085765294
aF0.0010947842888746188
aF0.0
aF0.0016469232278906445
aF0.0009281067093724743
aF0.003500937245046258
aF0.01685610320622658
aF0.02193118803435285
aF0.007441335321690019
aF0.004627673713623121
aF0.005759182005292837
aF0.05061239005793503
aF0.002292815930666493
aF0.00442334246445407
aF0.0028554123375930003
aF0.00020581405584747507
aF0.0005443961726487664
aF0.0006671547275211045
aF0.03074455807352728
aF0.0022692253549319715
aF0.0017648948433749822
aF0.011071804431275235
aF0.029296522442282764
aF0.0003857837196779181
aF0.0025890091654532012
aF0.006309719517555086
aF0.0026289983251001135
aF0.0029034720516487797
aF0.023749143966998728
aF0.005667966406710195
aF0.010928377520136038
aF0.0031905623315393672
aF0.006560931320374368
aF0.0017600572233182905
aF0.005761197744364311
aF0.005658629137354802
aF0.0015320809191134237
aF4.262574595055414e-05
aF0.0037574261789024644
aF0.0008803831260967418
aF0.0006418163979357873
aF0.016614148425666643
aF0.01225307028975852
aF0.0223583210665776
aF0.0022805297626356685
aF0.006895853374164507
aF0.03678833044511529
aF0.004431106603303766
aF0.0037605925200299025
aF0.0013807784900628818
aF0.0005842656157301467
aF0.0006244677737187729
aF0.00012363338339097262
aaa(lp244
S'sub-0025904_ses-1_dwi_desikan.gpickle'
p245
a(lp246
F0.029201823809740696
aF0.0009866364765492486
aF0.001400239434321412
aF0.010582626442901016
aF0.020725823957121314
aF0.0013555213626674435
aF0.0054675578742699625
aF0.01008603846330007
aF0.002127907276256619
aF0.00362130906521064
aF0.01185353337681574
aF0.007799611715228153
aF0.009765841020933308
aF0.007722034377342388
aF0.005376282164297248
aF0.0032722356512802516
aF0.0018338568798581803
aF0.003770076893937798
aF0.004942779664121839
aF0.0
aF0.001954644659197822
aF0.0030803186055206357
aF0.0026261488002755195
aF0.0062767852320617335
aF0.012486520811211495
aF0.0054879868791277465
aF0.006915517672955115
aF0.005607004125693416
aF0.04030226621262758
aF0.004201120498918784
aF0.00552993351710878
aF0.0013334110797975057
aF0.00043238928307431874
aF0.0004478630188086097
aF0.0017628371835682825
aF0.054297358568942786
aF0.008824745016140756
aF0.0015019012008156301
aF0.013398532236459579
aF0.038040737372234325
aF0.0006283797791401095
aF0.00752571411482859
aF0.0024983652805065843
aF0.001480004297669459
aF0.0014889325795132387
aF0.033575989303616
aF0.00531176241742678
aF0.009200743964776267
aF0.00543747521448091
aF0.006270181966263997
aF0.0009283189931068276
aF0.010727639072054053
aF0.015269812573931348
aF0.006459505578392956
aF0.0010985656529546438
aF0.0009283722067749307
aF0.0034014882549550534
aF0.0042641266203815335
aF0.012454232058384081
aF0.019169753459944407
aF0.034248234630840736
aF0.0006032237343659762
aF0.004642993295217372
aF0.03151684947137172
aF0.005707788424473252
aF0.002919083757303037
aF0.01264418774458522
aF0.00012432509235578288
aF0.0006466457254570232
aF0.0008930200000143775
aaa(lp247
S'sub-0025904_ses-2_dwi_desikan.gpickle'
p248
a(lp249
F0.036910596011094504
aF0.0014975496207226522
aF0.001789599530758553
aF0.009367825689621382
aF0.021234965533779678
aF0.0011093118763137427
aF0.0016125129017009155
aF0.0078702530702354
aF0.002491790015004944
aF0.004280992367230179
aF0.01436513366898343
aF0.003159429631250506
aF0.006940235962903584
aF0.006258069870496944
aF0.0085316422617111
aF0.004409644667070277
aF0.0014198066698609285
aF0.00460985836104618
aF0.004256783984211507
aF0.0001278772378516624
aF0.0005478319958126742
aF0.006784429820116592
aF0.002543683177612053
aF0.009636475352498855
aF0.009705299927300199
aF0.0105767930826033
aF0.004423843360164703
aF0.005676562118386169
aF0.036113933837707606
aF0.0062688012919048155
aF0.010652026940292986
aF0.0033527806149988224
aF0.0002668288116610668
aF0.000635532770457156
aF0.0010500324145178896
aF0.04006101445820691
aF0.008305317764863606
aF0.0011148917978184112
aF0.011910311282523938
aF0.033025819559117854
aF0.0005794582870060016
aF0.007085148710708022
aF0.005633287236730849
aF0.004842581025823823
aF0.004824837403101482
aF0.019444625171851682
aF0.010855942257104649
aF0.00873545220203412
aF0.004165223489777531
aF0.006531134692434286
aF0.0012324503072992045
aF0.005140495614869881
aF0.00812438767840823
aF0.0022066481589290096
aF0.0011049007962479042
aF0.0009167494081543158
aF0.0037568818417284522
aF0.001162513999252559
aF0.013152918739665051
aF0.01738139712852424
aF0.02886565507291003
aF0.00207525338255501
aF0.004374396281021451
aF0.03143753723358348
aF0.001887003564643434
aF0.008280510584214125
aF0.008626096561072842
aF0.00016732893782690685
aF0.0003176890767157053
aF0.0001664203381456779
aaa(lp250
S'sub-0025905_ses-1_dwi_desikan.gpickle'
p251
a(lp252
F0.052809907929014195
aF0.0022770725663849895
aF0.0017707916172696484
aF0.008758597965540668
aF0.016077950981564403
aF0.0005588780791532665
aF0.009788200443923277
aF0.006071814273043082
aF0.00014208084484148875
aF0.00462728211515652
aF0.019143492250123767
aF0.005510634350313933
aF0.012689900676919419
aF0.0069865397512760856
aF0.011787920878495981
aF0.003056158715508234
aF0.00986100933963821
aF0.003325284721265356
aF0.0016670507177788912
aF0.0
aF0.0023309800640015504
aF0.003681220712759384
aF0.009795924760035163
aF0.004586034923760565
aF0.017303869011337018
aF0.014859878258277108
aF0.003756084546733115
aF0.00613571497617966
aF0.016686228496156537
aF0.00802908959613287
aF0.00462728211515652
aF0.0013786909913191608
aF0.0004524731887639966
aF0.0004472352396797084
aF0.0021191752016322925
aF0.06220433417098063
aF0.011747795284336197
aF0.002465026624916721
aF0.016038484663119097
aF0.031340125518154974
aF0.0031697942744720316
aF0.005100433175375538
aF0.004353360579497631
aF0.0019332821839144064
aF0.003254696243046723
aF0.026991065914961105
aF0.008678126003728963
aF0.007722085341895667
aF0.005817208123472852
aF0.010103756575065825
aF0.0009596526559932186
aF0.018348028314646873
aF0.013113190954142996
aF0.005712087642436544
aF0.00017630996133143507
aF0.004178185773685469
aF0.000964845944237715
aF0.005571023381440818
aF0.005223875772251475
aF0.030328097570148163
aF0.029663993532391658
aF0.0031704996253326717
aF0.005881485505644701
aF0.03197468303811502
aF0.0046272934670458865
aF0.008218927461444306
aF0.0012837654175031064
aF0.0004668730239048126
aF0.00044290673669947954
aF0.0001755280179077671
aaa(lp253
S'sub-0025905_ses-2_dwi_desikan.gpickle'
p254
a(lp255
F0.050584274575461795
aF0.00044359885958615764
aF0.003411367636947485
aF0.0034700743341929807
aF0.018194745680829398
aF0.0018929838121380029
aF0.00846402676746883
aF0.006569487066066059
aF0.0009863715086092313
aF0.0032384155608196482
aF0.02025030565854021
aF0.007119654887997328
aF0.00849748023620606
aF0.007317168240255014
aF0.01127103622644679
aF0.0015146996946042899
aF0.01170408682836905
aF0.0021642638346350295
aF0.002700368593488636
aF0.0
aF0.0017748520397348488
aF0.0010286393278206836
aF0.00567868826583301
aF0.00392719479592707
aF0.00983785463929576
aF0.019853815093126618
aF0.00325050634283329
aF0.007629251914971287
aF0.025697789419084495
aF0.00990222256026049
aF0.0037205879023044985
aF0.0009961562783014487
aF0.00014030974708724068
aF0.0008700502226964503
aF0.0015866964941896055
aF0.06382315712835779
aF0.0036060790313738114
aF0.0034673179278000947
aF0.03304545671418055
aF0.027198680324785302
aF0.0025450730486339473
aF0.003424344926278714
aF0.00462761203649318
aF0.0034032760807500275
aF0.0015353172558122661
aF0.03535702213169106
aF0.0064477638442817075
aF0.005239700200975281
aF0.00819050584961605
aF0.0105082748214559
aF0.0011404914684188955
aF0.005606637421833787
aF0.012727483120527142
aF0.006860972286065379
aF0.00015726235944300287
aF0.0008065059232162903
aF0.0019188724233665246
aF0.011008563652823588
aF0.0036267720872842457
aF0.05020812587579035
aF0.02022735660051688
aF0.0031589853282080692
aF0.002809188566991136
aF0.031558700929274236
aF0.006153959967935668
aF0.006646698278781854
aF0.003211548538196048
aF0.0004966562990859667
aF0.0005070640682796834
aF0.0001183719647584601
aaa(lp256
S'sub-0025906_ses-1_dwi_desikan.gpickle'
p257
a(lp258
F0.05989024870670105
aF0.00293409550079331
aF0.0010398599776574012
aF0.018312380205964554
aF0.04427949891547946
aF0.0031775932064828116
aF0.002755034124775285
aF0.005140545120641238
aF0.0014995585182462547
aF0.005140545120641238
aF0.028328279979747965
aF0.003548334614964304
aF0.011775756080395735
aF0.004256164021023397
aF0.009010636061572113
aF0.003113342315750922
aF0.005162538720788383
aF0.006151657615856206
aF0.007221801627804087
aF0.0
aF0.0023310437724000824
aF0.005004378182751481
aF0.006791505636824958
aF0.012867124559350398
aF0.015287763679172927
aF0.010833820533493122
aF0.005354406861376642
aF0.009702923146328176
aF0.030604768270439373
aF0.006961407239049821
aF0.004914660073041911
aF0.002292704825053974
aF9.768400113668655e-05
aF0.0005797610806970265
aF0.0003720226742657717
aF0.07972518478148043
aF0.004972503301308477
aF0.0015821538209874334
aF0.009708464117196352
aF0.03083683268977123
aF0.0024659591296588394
aF0.005055148722501841
aF0.009196246113474818
aF0.0017270538221447224
aF0.0016665234374233996
aF0.027806684307044284
aF0.007261674826940781
aF0.006932294654537216
aF0.013407580351172826
aF0.00737907029462921
aF0.0015895014484646642
aF0.01033948594290932
aF0.012175459356102218
aF0.00330602417115323
aF0.0005930699025328181
aF0.00159215626266588
aF0.002314668268366152
aF0.0014899513962416708
aF0.012264550737588531
aF0.01865342044247091
aF0.025953589484347006
aF0.005451568035342653
aF0.0026704597505331534
aF0.01947791310385925
aF0.004299738208945685
aF0.009204720625893588
aF0.005625147297316416
aF0.00034447353820755354
aF0.0011651332713775787
aF2.748684014668669e-05
aaa(lp259
S'sub-0025906_ses-2_dwi_desikan.gpickle'
p260
a(lp261
F0.03481237111627046
aF0.0031416657168134472
aF0.0021959553293280695
aF0.014638482399689463
aF0.03238595899579954
aF0.0029333337129391246
aF0.003588288282829795
aF0.006422561750531997
aF0.001355062655091387
aF0.006422561750531997
aF0.019653198843172376
aF0.00872620333565194
aF0.006107451881496611
aF0.0046593459385415315
aF0.0077228186151852085
aF0.0046434536240260406
aF0.002948971499374003
aF0.0069004605825543144
aF0.002385118619127152
aF0.00043671754029810285
aF0.0014021815560718886
aF0.002153259319674525
aF0.005208461314327508
aF0.00962435198272211
aF0.013480349693178725
aF0.008193789579868408
aF0.006845611364517931
aF0.0041760070567797335
aF0.02275034514567729
aF0.00605698489551012
aF0.005897902436629295
aF0.0012298321614552935
aF0.0004460886775270811
aF0.001524599374242664
aF0.0005051057731390088
aF0.0732326547431243
aF0.008659962687509428
aF0.0019194886387511089
aF0.010204514222764012
aF0.04003258037846134
aF0.0010736058229137643
aF0.004352398275510901
aF0.005475205764141724
aF0.003552043484981227
aF0.0016090370376420334
aF0.02773378441176813
aF0.005761600994513644
aF0.009029890221168305
aF0.01231661031065619
aF0.01025085395386492
aF0.0009202954867125379
aF0.01610861822942279
aF0.019899706396264014
aF0.00341060810023504
aF0.00022121455863707373
aF0.0017398617955323797
aF0.001819755005519586
aF0.00034461278308777025
aF0.017456818352531142
aF0.03093538665897266
aF0.03260788229646081
aF0.007733211077057122
aF0.0037837580995139777
aF0.020055167441992598
aF0.005325029538910624
aF0.00993170164837335
aF0.0028171130514921526
aF0.0003915428291755831
aF0.0007199871760467673
aF2.5073968206208314e-05
aaa(lp262
S'sub-0025907_ses-1_dwi_desikan.gpickle'
p263
a(lp264
F0.06521430932215692
aF0.003042649103097192
aF0.0018783755836788438
aF0.017330831903037955
aF0.026226736731137498
aF0.0030861559021989476
aF0.0053465981704258845
aF0.003814947578735229
aF0.0012160563247276637
aF0.005340863301762066
aF0.01773147757622812
aF0.00541492906987469
aF0.006095883300995704
aF0.00337624683063777
aF0.005301231527170407
aF0.0021344784316740728
aF0.0074158552297291895
aF0.007649007830636851
aF0.0026287294404482133
aF0.00027631841863913237
aF0.0020604944884218914
aF0.00017731745088601597
aF0.0064943052498988695
aF0.014091806539092111
aF0.018319723958568603
aF0.009512415001661357
aF0.005243965018425929
aF0.0032496398599519845
aF0.029661355594346406
aF0.00432271778183122
aF0.01417093975591507
aF0.0030359567154344875
aF0.0009766763584275243
aF0.0007413272480977359
aF0.0006078532018471425
aF0.035502118230699625
aF0.0025405882061510037
aF0.0011495623520447911
aF0.012103525292378705
aF0.02642515275357734
aF0.0012359093693266147
aF0.009524835806840631
aF0.005677883220712152
aF0.005774109709585644
aF0.0038894653659464493
aF0.02964187263424677
aF0.005306044577674019
aF0.004465940674012698
aF0.003951496557758906
aF0.00851694726581692
aF0.0014271888988624298
aF0.004939327786686754
aF0.0025824360125179203
aF0.004034847949383593
aF0.0011141591988378054
aF0.000802463066906189
aF0.0003522515736874274
aF0.0009563705793524063
aF0.014314787381240552
aF0.01296074944745922
aF0.02494374197670242
aF0.0008034537331270346
aF0.00607315891226506
aF0.03556143347887103
aF0.006377360540760194
aF0.0031185585356399708
aF0.0009563705793524063
aF0.0002185449985698733
aF0.0005784778993330426
aF0.00040586439943209626
aaa(lp265
S'sub-0025907_ses-2_dwi_desikan.gpickle'
p266
a(lp267
F0.03912100066278352
aF0.002117070278625057
aF0.0018433254279147536
aF0.021431456768020947
aF0.01894340012496349
aF0.0007957601810213244
aF0.0054959601171889185
aF0.0039568078026539074
aF0.002966956266265394
aF0.004490424648174819
aF0.012631461065031534
aF0.008545508794859458
aF0.01415690948436628
aF0.008615113627318333
aF0.004804759964078103
aF0.003131841036529807
aF0.008943264287591148
aF0.002141942614571282
aF0.001554563187584261
aF0.0
aF0.0022803161094991165
aF0.004399074665480619
aF0.0022403652191134785
aF0.014305682721041255
aF0.00905352140540657
aF0.016165298114719593
aF0.006833253640297711
aF0.00603527062466772
aF0.02609127232453963
aF0.006662789560311451
aF0.0065353889205080245
aF0.0005225344555986231
aF0.001821784690079828
aF0.000478606485471474
aF0.0019391319669351482
aF0.0467608931647956
aF0.010023045067853202
aF0.00195594328591508
aF0.016773219824114175
aF0.025567520162194695
aF0.002267824005802529
aF0.011339773713362453
aF0.004741317992315078
aF0.0033822945997105513
aF0.002855691284418116
aF0.025773756249111514
aF0.014749351347119247
aF0.005312320723681365
aF0.003934808531687698
aF0.004888477925260689
aF0.0012704811419514306
aF0.005749736272617435
aF0.0075152772028297034
aF0.004294546981508389
aF0.000963497505675718
aF0.0003261976965487849
aF0.000644367358804258
aF0.0025485638448724856
aF0.018464981274422924
aF0.024898621086084163
aF0.03498152791204558
aF0.001313619058538324
aF0.0053272593186815586
aF0.04308931112045358
aF0.004032937159859467
aF0.0018439934522501724
aF0.004567549039685774
aF0.00012129577346968652
aF0.00040259186678624016
aF0.0005025889598448182
aaa(lp268
S'sub-0025908_ses-1_dwi_desikan.gpickle'
p269
a(lp270
F0.05284154039883195
aF0.00212407560881253
aF0.0003567441160579926
aF0.014940244243476513
aF0.023845801524829048
aF0.0038520357989437113
aF0.0051340818026722095
aF0.005838501021454813
aF0.0017423306833642827
aF0.004746727875167241
aF0.02110329238071386
aF0.007020667786334073
aF0.009462185702322838
aF0.005267094933763276
aF0.011792791572226971
aF0.003808496227353443
aF0.003666541388013754
aF0.005395906630963545
aF0.006006624456383622
aF0.0002510182817088188
aF0.0028251384154424517
aF0.004224937272386344
aF0.0005444104525842161
aF0.018085460076248294
aF0.01427261257644912
aF0.01704982969799378
aF0.003730912847049513
aF0.004947875770660766
aF0.03630241717579743
aF0.005256562572584966
aF0.006043208182627108
aF0.0014662701077279875
aF0.00015561780267662619
aF0.0006272227819542398
aF0.0005490169460469755
aF0.06686089555858475
aF0.0019359220005699858
aF0.0006517412324341105
aF0.01562398208807398
aF0.018232338931049023
aF0.00071298624593344
aF0.010672989862761226
aF0.003434479936044457
aF0.003704366935729097
aF0.003434479936044457
aF0.024024400467955096
aF0.01736129372351617
aF0.006743883596228548
aF0.01094992245129693
aF0.016532568313890904
aF0.0015100119896110172
aF0.019426683895547366
aF0.005351525544779218
aF0.006483871022773546
aF0.0
aF0.002296139082066111
aF0.002718958000603856
aF0.0006138029278167686
aF0.012034185463642192
aF0.012984695313544712
aF0.029422336873051604
aF0.004854548730083284
aF0.004216239619494014
aF0.04194506807110585
aF0.006851701297412583
aF0.002181276999111321
aF0.00288653791418545
aF0.0003774547892194951
aF0.000473503665386826
aF4.736193994506015e-05
aaa(lp271
S'sub-0025908_ses-2_dwi_desikan.gpickle'
p272
a(lp273
F0.05581259853944155
aF0.0022174913537211325
aF0.0020756042649668566
aF0.024001358503339034
aF0.023929626930590774
aF0.0035425797880855227
aF0.0032780773635009124
aF0.005103562427074065
aF0.0025248911164665383
aF0.005920486727192013
aF0.022752382335269973
aF0.008789626700706609
aF0.009848410901626279
aF0.012058428344087081
aF0.0077551539035903136
aF0.0040982871795657155
aF0.004393898213813161
aF0.003071872728745809
aF0.002578413971716787
aF0.0001918158567774936
aF0.0027665241575311706
aF0.002314081857959549
aF0.002218262493211004
aF0.01650515583962071
aF0.01658755448321762
aF0.019097743727089986
aF0.004585824367556447
aF0.005487247452108054
aF0.043917163359993655
aF0.004887406786607897
aF0.00741511153202727
aF0.0020253935807644985
aF0.00015943731396251813
aF0.0004129100037028425
aF0.00035359937784727204
aF0.05003393784730578
aF0.009209775752293162
aF0.0022565270735173905
aF0.015307519306018093
aF0.022327625713737403
aF0.0008669755751757377
aF0.007609968864487379
aF0.005510183089253048
aF0.008360021740783844
aF0.003450964925293745
aF0.021343066972590925
aF0.01343114950225635
aF0.007421980133379082
aF0.005708753737987202
aF0.010649480299983164
aF0.0015509722349481099
aF0.017038308179185967
aF0.003014606899234087
aF0.0055976623587425944
aF0.0
aF0.0017778787208281167
aF0.003152316731557428
aF0.0005232935920469293
aF0.007900784681158039
aF0.013020360866856321
aF0.020179780889951506
aF0.0037924221664487304
aF0.004473069892301494
aF0.03142697999026091
aF0.008616806311665951
aF0.005270927167486243
aF0.0018902146957399358
aF0.00022460489212407372
aF0.00035779159632025586
aF0.0006578701855091057
aaa(lp274
S'sub-0025909_ses-1_dwi_desikan.gpickle'
p275
a(lp276
F0.06832259241399835
aF0.003854042576629478
aF0.002714137364981935
aF0.013477151128697169
aF0.03168439476931375
aF0.00187384498050886
aF0.003236977808324487
aF0.0077799205718202475
aF0.0015609101474094924
aF0.0077799205718202475
aF0.017413151796322333
aF0.002091434933480368
aF0.010303252846154187
aF0.0030468905355566307
aF0.008392828469387619
aF0.0026239336550543495
aF0.005010144718776029
aF0.008309008757255881
aF0.002465280269177516
aF6.39386189258312e-05
aF0.002417204757691978
aF0.0027601373767885402
aF0.0029011284956767707
aF0.01878374022093188
aF0.009248643149210707
aF0.009149330469995196
aF0.004544473288726032
aF0.0038104268475812123
aF0.02238192370230451
aF0.0007310776403335959
aF0.010736019493553906
aF0.0018173060128425073
aF0.00032978531329933773
aF0.00030957486200452946
aF0.002598456867188024
aF0.039469410264438023
aF0.0018336925315365989
aF0.0019469938523018746
aF0.02198691445056004
aF0.029821880898101744
aF0.0005368245448141397
aF0.002274980310397786
aF0.00757121254289947
aF0.0032618236061328207
aF0.00571831197779017
aF0.026741078891963883
aF0.005595843621440047
aF0.011599967199334487
aF0.004727363086299056
aF0.007095154612231831
aF0.0012870372603734474
aF0.00460091530465474
aF0.005417886585051166
aF0.0023244473323744234
aF9.583873074921668e-05
aF0.0015966468135325395
aF0.003342904826261795
aF0.0009086351665562459
aF0.002473898820029918
aF0.010122331977072907
aF0.020263911088138607
aF0.0032565232196637593
aF0.004283272014462805
aF0.02584417349499998
aF0.0049872394077953765
aF0.007276049780771663
aF0.0029317854756097383
aF0.0003701322595184488
aF0.00026745947462059993
aF0.001419409207178182
aaa(lp277
S'sub-0025909_ses-2_dwi_desikan.gpickle'
p278
a(lp279
F0.05299170522199838
aF0.003640835227486898
aF0.002190589104753252
aF0.026924366539941007
aF0.021709270272361532
aF0.0012537131883005816
aF0.004129584117192968
aF0.008643523540990425
aF0.00329445739532168
aF0.007393901417853936
aF0.02006591439965598
aF0.0022202702739485135
aF0.008077948805589739
aF0.0020186633705742535
aF0.00783202884838962
aF0.0022724257345081204
aF0.006111313950999469
aF0.005491995601696728
aF0.003480483279859298
aF6.71678421039035e-05
aF0.002348929301523694
aF0.0015033747613481798
aF0.004065939809821403
aF0.012439131267798028
aF0.008991687652153777
aF0.007183156138508409
aF0.004490449784676293
aF0.003484962350148453
aF0.03555328250210997
aF0.0005570335084888305
aF0.008643523540990425
aF0.003517311992210566
aF0.0003584023724688686
aF0.0004332233552182401
aF0.0023724966521549767
aF0.03860691691176989
aF0.0009669903514321313
aF0.0015794533144862016
aF0.01599818916713689
aF0.01872327102943099
aF0.0003864843486645128
aF0.004246231841956007
aF0.010167908282148745
aF0.0007559605713807266
aF0.004240940666267128
aF0.026389083947115453
aF0.005749980074282572
aF0.010344038652000419
aF0.006611037605116018
aF0.0067196287542452765
aF0.00257303572343271
aF0.007004023823006603
aF0.003545020569018685
aF0.0028591060322300348
aF0.00014645769121472447
aF0.0016712856674796462
aF0.0030496535627768362
aF0.0006906341385241641
aF0.0024323616913366855
aF0.01548323062657408
aF0.021274103280060883
aF0.001726924082050129
aF0.004458293902467164
aF0.01956933049759086
aF0.00431199574241831
aF0.009452303116472412
aF0.0013180619868598822
aF0.0003331820412954439
aF0.00026912723867854977
aF0.0015134060584648269
aaa(lp280
S'sub-0025910_ses-1_dwi_desikan.gpickle'
p281
a(lp282
F0.06856345076675764
aF0.0007723132174637369
aF0.0011216998328947047
aF0.010386081072467947
aF0.040980580696966494
aF0.0013183502496507018
aF0.00498649062257508
aF0.005525105285648741
aF0.0007723132174637369
aF0.003205927477729964
aF0.032448529032077345
aF0.009610874017228798
aF0.016506471190546126
aF0.011934518871376604
aF0.007649078000766318
aF0.0018168055153619273
aF0.0044742979995647135
aF0.024183656297135404
aF0.004689267654373958
aF3.044696139325295e-05
aF0.0028909988167374924
aF0.0001763798748226408
aF0.0011538723664208227
aF0.022837942783375725
aF0.02978978323441972
aF0.02142607170856397
aF0.0033684671145357706
aF0.009839257279187155
aF0.021749693760681175
aF0.0033206131816283005
aF0.012810292373538769
aF0.00040340206931337267
aF0.0004496829573358647
aF0.0010729858841028173
aF0.0005293511981945691
aF0.045709429898954504
aF0.0006299034994957336
aF0.004643783424626615
aF0.010058877613282691
aF0.025281063831651646
aF0.00010650466495208483
aF0.005604569899011835
aF0.00924641009528041
aF0.001233826521106441
aF0.0023395169666958673
aF0.01639227324851376
aF0.00646280280238011
aF0.00696629661531577
aF0.007057672107288267
aF0.011961839936497399
aF0.0012806342457853217
aF0.008475975086137878
aF0.007528146714562686
aF0.0006997113005669728
aF0.0003723704612876755
aF0.000355139020138268
aF0.0036033306290975805
aF0.003166725080321266
aF0.007738419190121862
aF0.017532431864429737
aF0.02421197648121547
aF0.003205987619612717
aF0.005393259087395382
aF0.027849281289167614
aF0.00575872161158236
aF0.006298225277264394
aF0.0018655908258846507
aF0.00037411283674932495
aF0.0005525429812743317
aF7.794422116672756e-05
aaa(lp283
S'sub-0025910_ses-2_dwi_desikan.gpickle'
p284
a(lp285
F0.09168867071298015
aF0.0013622636418626848
aF0.002925889126820355
aF0.01158604173696067
aF0.029262875070892272
aF0.001975360084264809
aF0.005478619645820634
aF0.004067205622564567
aF0.0018673237714616378
aF0.0027450556295643778
aF0.02601344536386201
aF0.00437234271675147
aF0.010376237840647031
aF0.017584897274362216
aF0.010604894316650182
aF0.0027450556295643778
aF0.007147689706151715
aF0.017153995386098027
aF0.005195498623330109
aF0.0001517734893693973
aF0.003150888573837738
aF0.0018852438755929154
aF0.0037307949955890356
aF0.02083657474956247
aF0.033538613245856795
aF0.029298382143722025
aF0.0008608957149264341
aF0.007800245267228025
aF0.011197936433876617
aF0.004760508318178049
aF0.014241730897252959
aF0.0016840101789032732
aF0.0001706683670945348
aF0.0007063908757083909
aF9.332590666275035e-05
aF0.04904728801048776
aF0.0058807363972339065
aF0.0011928095772375754
aF0.007552316182945743
aF0.02107384650666713
aF0.0018738583062225887
aF0.004619133216914425
aF0.012577966924674073
aF0.004431481916420721
aF0.0038446112943565083
aF0.023390813316536137
aF0.008227257954838887
aF0.008154406594861458
aF0.009250230229406456
aF0.007481201415750015
aF0.0028129716613002225
aF0.0040348785647363675
aF0.008046891225909876
aF0.0006359278197384823
aF0.0018384509150940372
aF4.1610847237445704e-05
aF0.000882276926251625
aF0.006625945497775506
aF0.007755676922738963
aF0.01613550737295755
aF0.02803110733404729
aF0.0032692711707008122
aF0.0024752066333925673
aF0.02462323610367628
aF0.007209164154512406
aF0.003779243775522526
aF0.002845608777383476
aF0.0006826161748762933
aF0.0004666230393682982
aF0.0004028727560888249
aaa(lp286
S'sub-0025911_ses-1_dwi_desikan.gpickle'
p287
a(lp288
F0.05094941438086394
aF0.004781253349435283
aF0.0018076217298117027
aF0.020690629405246862
aF0.022215130102636024
aF0.00013645703543401752
aF0.003172522104937253
aF0.00888021486560909
aF0.004497841707709867
aF0.00888021486560909
aF0.02047017743225871
aF0.004223226066056196
aF0.0060370164673495255
aF0.008919955463941618
aF0.010415893241119767
aF0.001894978369846472
aF0.003399085400127256
aF0.005070338855909747
aF0.002884736821336632
aF3.552145495879511e-05
aF0.0011196248107701254
aF0.0006649712293928522
aF0.0050410086753873845
aF0.012986977604233771
aF0.017752212328156967
aF0.013363860367531122
aF0.0019979302096777463
aF0.005128003196086197
aF0.04765284461642727
aF0.004775855975987638
aF0.006607816851028843
aF0.002599382861076054
aF0.00031482027965403924
aF0.0006863137217996552
aF3.7065866043960116e-05
aF0.03458369199916365
aF0.004420863254795067
aF0.000798339099260886
aF0.0031127491447882974
aF0.023615494289861115
aF0.002811581174428047
aF0.0037150603615889273
aF0.00690971471505843
aF0.003793917162227142
aF0.004855166700567871
aF0.025921040917508388
aF0.0011324468572591604
aF0.008391798233699356
aF0.0014070715599730948
aF0.011490452082983155
aF0.00584700416211771
aF0.0053899196616908175
aF0.0026381297172594275
aF0.0026546387800248515
aF0.00015127884581904374
aF0.0032983155423573587
aF0.0006257148038709564
aF0.0013752579794933993
aF0.011236736274899526
aF0.011856624645288603
aF0.014486951238218398
aF0.004825418808644275
aF0.007390367096277682
aF0.017560930037090233
aF0.0027476091827391743
aF0.010788399679216496
aF0.004114164358827026
aF0.00015078204225318646
aF0.000752881803860659
aF4.5782349651927186e-05
aaa(lp289
S'sub-0025911_ses-2_dwi_desikan.gpickle'
p290
a(lp291
F0.05546812565400908
aF0.0029075270919376385
aF0.001992340577274623
aF0.013344666937803338
aF0.02673620919519409
aF0.0003108127308894572
aF0.002489728437336418
aF0.006987593325667928
aF0.0026539105889556366
aF0.006987593325667928
aF0.02104465407296904
aF0.0028604115856164535
aF0.00610114456402195
aF0.008957182844436152
aF0.011664493732213255
aF0.0037932578354584853
aF0.0034628475653288603
aF0.003971265101550827
aF0.003103972134540597
aF3.044696139325295e-05
aF0.0007205026001328752
aF0.0005440317645351847
aF0.003276163846565013
aF0.01120121552135108
aF0.0211941982995537
aF0.008954853466281078
aF0.0030988249288210457
aF0.008394910139610526
aF0.028101360761733696
aF0.005621072706417479
aF0.0047531752229225
aF0.0015240692124996978
aF0.00019824354862718035
aF0.0004909143857397371
aF0.00037880227738770685
aF0.044728234364231394
aF0.002410538451338708
aF0.0003660887377225575
aF0.001912205825136987
aF0.025840319863081357
aF0.000758332601192327
aF0.004473358004800654
aF0.006371977189153638
aF0.003136679669548502
aF0.004991938330378163
aF0.026653191803129486
aF0.0013887562460035683
aF0.008647000258180073
aF0.0011091155966072381
aF0.009725637348223348
aF0.00488907851765476
aF0.006696863567444269
aF0.0060324109457304586
aF0.00039417529074517194
aF0.00017287108079946955
aF0.0017760763799764827
aF0.0010679327301066658
aF0.007612663111009214
aF0.007759188356818261
aF0.01798839599124189
aF0.01798525471643058
aF0.0035150114493822386
aF0.005906711722462443
aF0.014413239207942508
aF0.0015267632684982568
aF0.010698793601926758
aF0.008045521146117462
aF0.00019021662244168635
aF0.0005350979851733102
aF1.1840484986265037e-05
aaa(lp292
S'sub-0025912_ses-1_dwi_desikan.gpickle'
p293
a(lp294
F0.05707182315568163
aF0.0007622410003833681
aF0.0014917983975617035
aF0.019657267604486005
aF0.021289554554336967
aF0.0029377233406420924
aF0.006350701354092971
aF0.0026848277217180637
aF0.001276841957428117
aF0.0032971827582791127
aF0.015583903685698073
aF0.0035671099275632425
aF0.014214482762746273
aF0.006707896938553675
aF0.01518631005956083
aF0.0027447944503342816
aF0.004747060022929137
aF0.007526568506736144
aF0.0033432416128389873
aF0.00021257287986146316
aF0.0007440024811400515
aF0.005599428110801499
aF0.011781837836695919
aF0.007495394194465224
aF0.029507412070156207
aF0.01297210429507042
aF0.0036636802859310274
aF0.006322649365087203
aF0.03473967786290122
aF0.004835230730941636
aF0.012333779155737155
aF0.0016296487307434708
aF0.000192027441059627
aF0.0016274835576107892
aF0.00024264510548390098
aF0.04956872055291845
aF0.0028612703392859326
aF0.001404984779388343
aF0.01192630497518136
aF0.02452379066801277
aF0.0016169322068369145
aF0.006680061305619879
aF0.012777872733754601
aF0.0013774295526416643
aF0.004181201827498745
aF0.021518113610878364
aF0.004474977815796138
aF0.005132858123916326
aF0.0048386270623502975
aF0.009763706287399605
aF0.0015194160321455154
aF0.016384525853240735
aF0.023893514199447734
aF0.0065769454351401295
aF0.00011804052724768835
aF0.0008742993738043653
aF0.002999956147476525
aF0.006119392038032746
aF0.003316789499949352
aF0.021199290004991014
aF0.021649828110096473
aF0.004716371676470224
aF0.004115075520914872
aF0.030658131141316672
aF0.003513965386992261
aF0.007326247697705934
aF0.0028663958616572094
aF0.0004099175902244956
aF0.0021394296008180966
aF0.0005260509940139811
aaa(lp295
S'sub-0025912_ses-2_dwi_desikan.gpickle'
p296
a(lp297
F0.05947506158928161
aF0.002035278721501401
aF0.002638837542007445
aF0.016897876098117
aF0.026891106215562573
aF0.0026002034809601755
aF0.0064153706146045444
aF0.003706128007004732
aF0.0006117200962693734
aF0.003706128007004732
aF0.018373963836171712
aF0.005000206289949735
aF0.00814448044913918
aF0.005739660729024719
aF0.011414380384532423
aF0.004303096028310747
aF0.01026306423416244
aF0.011142282042317417
aF0.00544747123503459
aF0.0014632887096015647
aF0.0005235551034248505
aF0.004774071215629994
aF0.006223700090303607
aF0.006788894936432222
aF0.014254157361518947
aF0.019019297437055716
aF0.001729635374545996
aF0.004865550929116314
aF0.02488804071854846
aF0.005440228013713217
aF0.006945148327496595
aF0.0014173814230669626
aF0.00040873916662415
aF0.00043934605737306324
aF0.0007024649447073245
aF0.045915976365083724
aF0.002291257849715012
aF0.0011743913804581187
aF0.009942272175734375
aF0.046076103412573934
aF0.002533290101492915
aF0.0021435956117963925
aF0.014617913130156122
aF0.001477814639656884
aF0.0031015303279881886
aF0.03723262838396049
aF0.005087891460952582
aF0.008749343889518974
aF0.0033237138381438562
aF0.013532459767941438
aF0.002625210863779451
aF0.007652561110305234
aF0.010157046301220895
aF0.003820792715472414
aF0.00017808843926483067
aF0.001246060820869005
aF0.0029584499651769763
aF0.004461095946504264
aF0.006982987613361346
aF0.021761418895342537
aF0.022706292209929615
aF0.0017457316959704034
aF0.003770978865338354
aF0.03216837153919028
aF0.004540577779185902
aF0.004794693597785692
aF0.0018525891586294598
aF0.0001217878455730118
aF0.0009506036352047593
aF1.7050298380221655e-05
aaa(lp298
S'sub-0025913_ses-1_dwi_desikan.gpickle'
p299
a(lp300
F0.07895850907156222
aF0.0002291795248318822
aF0.0022563507089593776
aF0.016211882292374434
aF0.02667380344491268
aF0.004714851123259557
aF0.010174631509280463
aF0.006751127334795587
aF0.0014460131105662292
aF0.002559870778921347
aF0.023815271218676957
aF0.0022700736736522426
aF0.014886414048362103
aF0.008695550243789736
aF0.016203041841683967
aF0.0019199984318878742
aF0.004455624906663328
aF0.02352498458237844
aF0.0046060793937796165
aF0.00033927521728706274
aF0.0022563507089593776
aF0.00732225116535262
aF0.0027602549157703274
aF0.01798936656359112
aF0.028542063444258994
aF0.02404641139543086
aF0.0007853734350579271
aF0.007627069282405167
aF0.03512424130249646
aF0.00795290695413813
aF0.0032882404011528614
aF0.001376378178140476
aF0.0003542141052310571
aF0.0005594371641224376
aF7.400303116415648e-05
aF0.030920980846316823
aF0.003292788220613265
aF0.0014526170872268978
aF0.008399515359556207
aF0.017402552705278896
aF0.0019679595647283965
aF0.004147520821327243
aF0.019605038312127593
aF0.0020151232229129244
aF0.003195975144591462
aF0.022243171494194518
aF0.006869797863089003
aF0.009146521963268857
aF0.015012885523466338
aF0.011287713020468354
aF0.010003231312141592
aF0.011801430053336065
aF0.014084537106228161
aF0.0032808513859879135
aF9.67276542724113e-05
aF0.003475373438940237
aF0.0015406777825263133
aF0.0011234897421097333
aF0.007425735945430891
aF0.015239839779941223
aF0.026805296860908746
aF0.004131163910901224
aF0.01152887833266773
aF0.017302636729956578
aF0.005358401237149169
aF0.01822553833486118
aF0.0006831094887736983
aF0.0002669717772692601
aF0.0011083743591495361
aF0.0
aaa(lp301
S'sub-0025913_ses-2_dwi_desikan.gpickle'
p302
a(lp303
F0.05949117514160585
aF0.0
aF0.0004903076413373896
aF0.0
aF0.0064025280452724865
aF0.004281286682604665
aF0.0025393089021570584
aF0.0002527097795639995
aF0.0
aF0.0
aF0.01474508278301366
aF0.003955324359736124
aF0.011814587775684098
aF0.021130847320013583
aF0.023253335960504176
aF0.0
aF0.010053071694070248
aF0.006823061406420227
aF0.0
aF0.0
aF0.0
aF0.0005070597994724168
aF0.0016539996138528914
aF0.006166438180592822
aF0.0007664190349988455
aF0.030481851845868536
aF0.0032963256408105233
aF0.000884883456536425
aF0.033148147910317005
aF0.007764759737909316
aF0.0
aF0.0
aF0.000319693094629156
aF0.0
aF0.0
aF0.04407138664011558
aF0.0004552945872501606
aF0.00046482161840891156
aF0.010406962290655578
aF0.020440989851738967
aF0.00595203441800373
aF0.008096109665247292
aF0.013095824114196769
aF0.0038602780241828267
aF0.004693258433152932
aF0.027627855039857242
aF0.005778259861387365
aF0.003030329440148055
aF0.02491351226423437
aF0.014843202402752735
aF0.002625085331140204
aF0.013488263632742031
aF0.019280692443557866
aF0.004442024943128926
aF0.0008272124815513147
aF0.000789027058442566
aF0.0074710365867476725
aF0.003946476622857853
aF0.0050092007648846115
aF0.01640073872255477
aF0.06602732992291435
aF0.0019534477896128517
aF0.004697745068856877
aF0.011980456812776732
aF0.011722673845775449
aF0.001634696428911374
aF0.0007963018277208725
aF0.002116329115556172
aF0.0018783022720472158
aF5.014793641241663e-05
aaa(lp304
S'sub-0025914_ses-1_dwi_desikan.gpickle'
p305
a(lp306
F0.058615159987057346
aF0.001696463355322011
aF0.0026128662601143586
aF0.013066252189193876
aF0.0323874537778162
aF0.00313582612722108
aF0.0024453649402937914
aF0.003639561321751745
aF0.0003172652311525029
aF0.003639561321751745
aF0.013645809535071449
aF0.004813727900989809
aF0.01050616688831265
aF0.0027370847954106465
aF0.009757126664617189
aF0.0030053568363915496
aF0.0040632734816322316
aF0.012497580855110806
aF0.00045944736664582745
aF0.0005846801250442768
aF0.0017229378859144517
aF0.0039008413527153707
aF0.008264260318510663
aF0.022426924272760513
aF0.01823935545638226
aF0.01124127877948131
aF0.0014312638864674581
aF0.005505013019071852
aF0.03699888090461361
aF0.003706256912715162
aF0.009646925818884131
aF0.00694101021495321
aF0.000815553203378538
aF0.0004935782648126168
aF0.0008087017078067261
aF0.04642500150189292
aF0.008742430761354034
aF0.001907192701365082
aF0.004936360694948181
aF0.01889498027387913
aF0.001120217365424613
aF0.009549376922033921
aF0.007961635726959028
aF0.0013749385738208502
aF0.0036757496403121933
aF0.02847203842105861
aF0.0039481188513375495
aF0.008137033577450973
aF0.0030649445745307958
aF0.0074137333712681105
aF0.0036757496403121933
aF0.008047481507021937
aF0.007215605109483868
aF0.005350434068904207
aF0.0001014699047809768
aF0.0018326903387105545
aF0.001801985916190277
aF0.007095766511677984
aF0.00891294593247129
aF0.017266629847521062
aF0.01990091701725375
aF0.0032143556263022057
aF0.006015890484662312
aF0.01623336369086665
aF0.0029602696049927458
aF0.007316431054775156
aF0.002609606654222856
aF7.104290991759022e-05
aF0.0005319451283017839
aF0.0005244663878225601
aaa(lp307
S'sub-0025914_ses-2_dwi_desikan.gpickle'
p308
a(lp309
F0.06454959239525725
aF0.0037956002412323866
aF0.0015634288407782207
aF0.01136716573510751
aF0.03137930532153759
aF0.002944274960807466
aF0.0040814393688965705
aF0.006978499657454316
aF0.0001736904265547975
aF0.006978499657454316
aF0.012921902970807251
aF0.00442374725076245
aF0.011811073707854787
aF0.004614464801791233
aF0.009614594902536838
aF0.004982493091950302
aF0.00398705500208949
aF0.011070139271376246
aF0.0005084022908774117
aF3.552145495879511e-05
aF0.0026208488667874
aF0.004212820480997072
aF0.00906841831975934
aF0.021505726281387985
aF0.020144462080510697
aF0.00345757104698755
aF0.003412721695999575
aF0.007451299455813041
aF0.0408413720634198
aF0.002511960898370074
aF0.009520187261368558
aF0.0015570960168470795
aF0.00013785707519722864
aF0.00030762076797882424
aF0.004147135801859922
aF0.03436084055839364
aF0.005955877068803563
aF0.0009372653149983264
aF0.006834378215542086
aF0.022780783612389884
aF0.0013263622203345323
aF0.0037320913075059494
aF0.016228292538908895
aF0.0032309594050275933
aF0.008947341534795525
aF0.022777767224247344
aF0.003107348235672324
aF0.008190324493176918
aF0.004735195036937114
aF0.009851403367199255
aF0.005458860669774431
aF0.0054241568333854235
aF0.01142157978915267
aF0.00454443854024475
aF3.875067813686739e-05
aF0.004105405198302995
aF0.00036727236064148486
aF0.002448963219694296
aF0.006135653904405671
aF0.011052892163448323
aF0.028729240975821645
aF0.005379300229525331
aF0.0074938890144085925
aF0.02118611067440545
aF0.0039573612428447785
aF0.005864272980530687
aF0.0032307731357792717
aF0.00024213791796912
aF0.0004173675980506129
aF0.00037552036909939564
aaa(lp310
S'sub-0025915_ses-1_dwi_desikan.gpickle'
p311
a(lp312
F0.04354592374430155
aF0.001197225536226638
aF0.003373615513862941
aF0.015809684666678592
aF0.02139522672407168
aF0.0019118022696681832
aF0.009642644292191634
aF0.0037476832259091507
aF0.0024333266125838777
aF0.004405788730468644
aF0.018879733071079874
aF0.0019331628951938064
aF0.006359663693368619
aF0.01021426356616922
aF0.006841956790612962
aF0.0023094746291965904
aF0.01121611871758842
aF0.004318178909003614
aF0.00709776181441627
aF0.00015338982518133554
aF6.618207923901826e-05
aF0.0006642157607048718
aF0.005303227036794419
aF0.010602054976663902
aF0.012426429039970108
aF0.01646772357191792
aF0.0011738371207942432
aF0.0041330889778109225
aF0.038912152917077995
aF0.00822641921682032
aF0.0035137000394857734
aF0.00013761818587355407
aF0.0
aF0.000509306436647275
aF0.0007308371793498164
aF0.04788876059178362
aF0.0018592494245360071
aF0.0032833055399216927
aF0.02142335845072338
aF0.03685166911232152
aF0.0017286067212986037
aF0.0139129925307219
aF0.008533682645874903
aF0.0022653040056395393
aF0.005586310625726002
aF0.023384759538974908
aF0.0018114796440616447
aF0.011364616698859024
aF0.009180244532077345
aF0.011056643112540912
aF0.002260852365867012
aF0.011779325348557683
aF0.005372674078143795
aF0.005032204800811075
aF0.0
aF0.0017002842872355232
aF0.00025941455210866013
aF0.0029699814704035855
aF0.016462182678572093
aF0.01786842562350044
aF0.029420744555041074
aF0.0023189041956497287
aF0.005230011883938593
aF0.03455616834951961
aF0.005925571109966581
aF0.004080894525917991
aF0.0006164868343101353
aF0.0
aF0.0005336804121119411
aF0.0
aaa(lp313
S'sub-0025915_ses-2_dwi_desikan.gpickle'
p314
a(lp315
F0.03954424541496138
aF0.0004995127305985334
aF0.0036939805425515422
aF0.021960419169593248
aF0.022109365299374035
aF0.0017387322583795235
aF0.005099370275688054
aF0.006567349768948499
aF0.003370845676259636
aF0.0036260630672749943
aF0.01610981914345676
aF0.0029011728501963266
aF0.010671604230099148
aF0.013999725306754016
aF0.011374195523071434
aF0.0018746742983764793
aF0.01072456311612079
aF0.0025005776725814076
aF0.012414629900616286
aF0.0
aF0.0016693083396354161
aF0.0005089173132725151
aF0.01096140292902715
aF0.015470826181536576
aF0.01795838706426424
aF0.01394943473746122
aF0.006068412427577341
aF0.005513738809657419
aF0.04300968834306948
aF0.008040290018971217
aF0.002006763923015637
aF0.00027581063389958303
aF0.0005712875500472135
aF0.000514804902122489
aF0.00010555650305412103
aF0.046307571522358586
aF0.0009581439547637898
aF0.0032459671243148785
aF0.013166193591466757
aF0.019098067151740953
aF0.0017171891756594506
aF0.015196668072304983
aF0.00803742661664627
aF0.005842193727708225
aF0.003907553590857542
aF0.024727402897567422
aF0.001648659058409355
aF0.011472848807070116
aF0.007716536161529794
aF0.005077962928676495
aF0.0008862679898485525
aF0.015759256485214562
aF0.0036328597090708376
aF0.00331422414505385
aF0.00041915743854885367
aF0.00048373016683809844
aF0.00013133357545830565
aF0.002124610153015418
aF0.007646510374495078
aF0.009036370172440317
aF0.030395260756004606
aF0.0013706979144050377
aF0.005101659034093512
aF0.028642577623812195
aF0.011314908625494958
aF0.0013883652314096045
aF0.0024345648751872883
aF0.0005140859894055199
aF0.00027838144955030385
aF0.0
aaa(lp316
S'sub-0025916_ses-1_dwi_desikan.gpickle'
p317
a(lp318
F0.02716651757236437
aF0.001997132323423249
aF0.0022141285657603306
aF0.013468796350841425
aF0.0148776187846836
aF0.0025789115362413106
aF0.006406564934989426
aF0.00558052585632634
aF0.0012564205320267326
aF0.005007086821082588
aF0.010793885065359842
aF0.0027173752634216605
aF0.006851502562569657
aF0.004900542525189502
aF0.007726812348540821
aF0.002064328002547194
aF0.0023780384414625474
aF0.0034231763997504285
aF0.0031828109109108653
aF2.3680969972530075e-05
aF0.0003262471034403383
aF0.0018576668193036484
aF0.010310130436444968
aF0.009837698743513486
aF0.021637329972253472
aF0.012938119007744093
aF0.0014198651111619021
aF0.003634362011869932
aF0.02948718346285989
aF0.0034326210674966453
aF0.004605271655762853
aF0.0036926566348691515
aF0.00025575447570332484
aF0.0004836591454614623
aF0.001126869218126159
aF0.05034860493559464
aF0.0052868744902621586
aF0.0014657481016592797
aF0.02010653497086964
aF0.03904451210883974
aF0.0031289021799842005
aF0.009720817402279574
aF0.005077055250880899
aF0.0005672256790762956
aF0.0018302501799053877
aF0.02963877608865309
aF0.004060622707599263
aF0.008195380628308475
aF0.007034466710272999
aF0.009448806298406881
aF0.0007486864834635739
aF0.012867641483559662
aF0.009256010805962596
aF0.0009842855950780794
aF0.00017621919080101315
aF0.0012848352431108403
aF0.0025843677410952366
aF0.006963832578247607
aF0.016677318322670942
aF0.028789557548910508
aF0.028810571054575143
aF0.002466254994812638
aF0.0052054757363252414
aF0.02784124640849575
aF0.0010889407861768136
aF0.008962073687305264
aF0.0007720750591200147
aF0.00031083166556694056
aF0.00099438348112586
aF1.4698533086397977e-05
aaa(lp319
S'sub-0025916_ses-2_dwi_desikan.gpickle'
p320
a(lp321
F0.029929147497299465
aF0.0010342203112586378
aF0.001993343876963679
aF0.013926871749922453
aF0.01610211441030204
aF0.004121080202535331
aF0.008084913886877017
aF0.004225917900398961
aF0.0006738407796837772
aF0.0036494805451142897
aF0.00886424313476909
aF0.0032841967807376027
aF0.009621045080285818
aF0.004414071601783263
aF0.010250782857119372
aF0.0030173987102396797
aF0.0028554055439748097
aF0.00206872568099733
aF0.005773894289439124
aF0.0
aF0.0010008101310123895
aF5.902026362384419e-05
aF0.010382594436836354
aF0.006480281217076304
aF0.020037709641676702
aF0.014278949867054691
aF0.002972038697059849
aF0.002582724579193832
aF0.02548021338917721
aF0.0020094030144034076
aF0.004279227948046391
aF0.0026058928956149544
aF0.0005562303502839445
aF0.0004358023531481418
aF0.00034534396296609566
aF0.05305238370598388
aF0.0008800486756301595
aF0.0015844164078962974
aF0.025364079520058452
aF0.03338718997953345
aF0.0018553339175331521
aF0.007310072595781074
aF0.005715698801299796
aF0.0007568233187220171
aF0.002676641126598209
aF0.03204867185664672
aF0.0024703617992679655
aF0.010219280110117197
aF0.0059126938726969175
aF0.010342884937840491
aF0.0013562608111864776
aF0.009853483644391653
aF0.01009408518914446
aF0.001585223665051337
aF0.00017287108079946955
aF0.0016340371041464563
aF0.0026809320991873597
aF0.0062774873856160625
aF0.018521323453310246
aF0.01866608855289426
aF0.0229205153567887
aF0.0019943469318523285
aF0.005475467715244028
aF0.05427434053490931
aF0.0007568233187220171
aF0.007742979289698732
aF0.0008800486756301595
aF0.0002628587666950838
aF0.0007547814434453011
aF7.90485079353918e-05
aaa(lp322
S'sub-0025917_ses-1_dwi_desikan.gpickle'
p323
a(lp324
F0.06656088701970385
aF0.002821568529798979
aF0.001305080768222208
aF0.007741069673405309
aF0.021541711297275917
aF0.0035696754135707645
aF0.00477423348719296
aF0.006830335405626938
aF0.0022425836542326934
aF0.0055105636329306155
aF0.030868397531595582
aF0.003864391754464544
aF0.009312053124086771
aF0.01649127556073888
aF0.01223086302275589
aF0.001807023470932001
aF0.00889406313966087
aF0.03444657288501173
aF0.001370603675221233
aF0.0009535208283736877
aF0.0032265247643086443
aF0.0
aF0.012177907162061503
aF0.0340423663615112
aF0.02109275281662508
aF0.012685543692201477
aF0.003986953762203843
aF0.0035512983927557928
aF0.015691496356171564
aF0.00491590929085417
aF0.004280713618310379
aF0.0033672887714043236
aF0.0006959934069908493
aF0.000695369286382129
aF0.0016473185494189464
aF0.05085203077172484
aF0.00506185529426313
aF0.004729079601455274
aF0.011630311625861886
aF0.019346773466072303
aF0.0014215806355340965
aF0.004020897240309243
aF0.011084077484695079
aF0.0072705513787517115
aF0.004416564186082856
aF0.02237529873202275
aF0.003161821260000891
aF0.005900564685354982
aF0.006057129244190884
aF0.008701928823567273
aF0.0027069136431803922
aF0.008242771868013078
aF0.005260180944445801
aF0.004116709568152443
aF0.000333198387472036
aF0.0013899317875552917
aF0.0004067403429488974
aF0.0005083484844255697
aF0.00916201120120432
aF0.010700199673836503
aF0.038216484180798566
aF0.003556161666119945
aF0.0058972509815098184
aF0.022468180239195137
aF0.006835171436371925
aF0.00633883448557386
aF0.0042892300455978725
aF0.00031990204436420773
aF0.0003047653303407779
aF0.0014055036031328891
aaa(lp325
S'sub-0025917_ses-2_dwi_desikan.gpickle'
p326
a(lp327
F0.05520275505360116
aF0.0023949220722238027
aF0.0025791941219045693
aF0.006985404631910397
aF0.039390942319947074
aF0.002380588491396775
aF0.00507583962428782
aF0.010744889171141882
aF0.0020506989969698805
aF0.009213242282046882
aF0.03755154953980807
aF0.007003266010592579
aF0.019147024276802822
aF0.006422403517503824
aF0.020989688427695923
aF0.003706434682728956
aF0.004711303183366228
aF0.008080416704072505
aF0.001452027280255215
aF0.0
aF0.007985201796261538
aF0.0012020852143902105
aF0.008064836798114894
aF0.016924048958172216
aF0.014002185741401
aF0.014634403330359862
aF0.005919335334579624
aF0.008518715584054534
aF0.03482970825472974
aF0.008844391960293225
aF0.009610793069325052
aF0.007803530792744208
aF0.00021037752264668156
aF0.00039612351449630636
aF0.0002047871096847836
aF0.04542866555139684
aF0.0025588729255235218
aF0.0042747072440174555
aF0.005632647846483619
aF0.02737660008658339
aF0.0009173139141868903
aF0.0046700102982974
aF0.02177369376094027
aF0.007238836240556211
aF0.004765762953695049
aF0.02517933232358418
aF0.006832725718379247
aF0.0061582361603558355
aF0.0056392035643100585
aF0.0045062318622453345
aF0.002352684076669825
aF0.009933143575538985
aF0.0036002195981940134
aF0.0005834148174677738
aF0.0008236204791812516
aF0.0009785008053335286
aF0.0006880589462773981
aF0.0015721909522356775
aF0.005310848704675181
aF0.006205598335904138
aF0.02431852647797624
aF0.002793136619652367
aF0.005669060296740395
aF0.0189381433833532
aF0.006917751213857821
aF0.004363061677806335
aF0.0030239048056362283
aF0.0006414756866088293
aF0.0009878824597061948
aF0.0004018238246638051
aaa(lp328
S'sub-0025918_ses-1_dwi_desikan.gpickle'
p329
a(lp330
F0.06563228306352788
aF0.0006511922954308139
aF0.004186894855800593
aF0.02855124746888283
aF0.03133278285784835
aF0.00602261011218052
aF0.008766142254981816
aF0.003300599926808576
aF0.0005090666756460998
aF0.003300599926808576
aF0.01738743236830026
aF0.012057767998686793
aF0.00284046751454269
aF0.008223436525806913
aF0.0024553553897161706
aF0.0026646594251391736
aF0.0037710107997383146
aF0.01602110860400989
aF0.00404963784321201
aF0.00014400164467864184
aF0.0013079171726687047
aF0.0
aF0.004862374270970545
aF0.011704123303821997
aF0.02089560730373482
aF0.016969783279900175
aF0.0009768525980825948
aF0.0033700219579829863
aF0.022720776000992274
aF0.004066769931497575
aF0.004517779265004122
aF0.0005160997829336534
aF0.00012268877170336476
aF0.0008780476340040211
aF0.0002966324619707247
aF0.04083261433628715
aF0.006346855254312252
aF0.0024879860312212706
aF0.008962674891199783
aF0.030620940242246254
aF0.0014607969692752099
aF0.018015644434479634
aF0.004865519944136381
aF0.0025001356405972143
aF0.0033227735421905323
aF0.028398621172463483
aF0.002856072101082838
aF0.00867019243692425
aF0.0032580205391047083
aF0.010068506500916653
aF0.0023258065388637498
aF0.018126637870863802
aF0.008029246687485248
aF0.001694159880685647
aF0.00021644564062789934
aF0.0005057807810236685
aF0.0012211247394839494
aF0.0033055361908551086
aF0.01418650359023383
aF0.01809793406825572
aF0.03355854696449846
aF0.006559164597844117
aF0.0051773665531826335
aF0.01667151713451201
aF0.0047175981418266
aF0.002264182792709788
aF0.0028995203247684153
aF0.0
aF0.0008865455141848887
aF0.0005450094353158255
aaa(lp331
S'sub-0025918_ses-2_dwi_desikan.gpickle'
p332
a(lp333
F0.07446203803855656
aF0.0011416775970634308
aF0.004608205291884402
aF0.020304124013172963
aF0.027820797354426597
aF0.004145269810703332
aF0.008817226070938822
aF0.0028668755664623164
aF0.0011416775970634308
aF0.0028668755664623164
aF0.0159751940687816
aF0.0037330175407731137
aF0.004146433174280979
aF0.008005630017934261
aF0.004705445089149188
aF0.0028668755664623164
aF0.008415457652650414
aF0.006699400592325819
aF0.004084611409782952
aF0.00011248460736951786
aF0.002113721711536114
aF0.0006839695308324199
aF0.004633867914275722
aF0.009875954776621612
aF0.019488791776134367
aF0.015250641890292379
aF0.0019630529538317626
aF0.004665141625778647
aF0.03209540991597067
aF0.00945056544102544
aF0.01558129543696138
aF0.0009906690095478293
aF0.0006588910947454099
aF0.0008487570134176498
aF3.9468283287550125e-05
aF0.0595931738907502
aF0.006926409336662155
aF0.0013666155750540324
aF0.01327797056896727
aF0.02457091301323295
aF0.0023735434958241956
aF0.008403011690840897
aF0.006310048696439603
aF0.0018117277146617883
aF0.004383665466771542
aF0.02629569830168959
aF0.005352561600207041
aF0.008183799923692565
aF0.008837215343655969
aF0.008172195369658877
aF0.0023230706291747375
aF0.010814917160382874
aF0.008954664138523364
aF0.00205696809099481
aF0.00037212199515335875
aF0.0020278773144356927
aF0.00023905253534023993
aF0.004681871509413916
aF0.018520429743672653
aF0.02630192396285582
aF0.02944466392722829
aF0.0032204184751647375
aF0.004860058512190159
aF0.012390894640006285
aF0.0026838176454325835
aF0.0027027762944935706
aF0.001592946628091276
aF0.0005929842339315304
aF0.00043059029631919657
aF2.3680969972530075e-05
aaa(lp334
S'sub-0025919_ses-1_dwi_desikan.gpickle'
p335
a(lp336
F0.043921260448484045
aF0.0006808648577637805
aF0.0015399362525687819
aF0.01291282967171359
aF0.028695435407698363
aF0.0016074959629423166
aF0.0032358805857185054
aF0.003836997647668314
aF0.000369063266160913
aF0.0029557710928623084
aF0.011980606978926228
aF0.0019096075899797157
aF0.00496379931537863
aF0.00491968581373142
aF0.006028110536375864
aF0.0027546346410276755
aF0.0023198549587712444
aF0.00404388548364832
aF0.001326774869894837
aF0.0
aF0.0003461522662408697
aF0.0034345419611603897
aF0.008086608501706253
aF0.01581754341707372
aF0.020890570758407695
aF0.0135759825316776
aF0.0020822759821596893
aF0.001329335332308577
aF0.014179611613047956
aF0.0015094604276172923
aF0.005143187735297615
aF0.0012305510593220105
aF0.0002412726517585852
aF0.0005274207616766353
aF0.0012775753947110126
aF0.04990440549416104
aF0.006185493323883265
aF0.0021422514097821756
aF0.0085329143903753
aF0.03370041078189526
aF0.0007009814330786198
aF0.002807692092417526
aF0.008287823782279342
aF0.006041711882675286
aF0.007358739998202206
aF0.0414118429051442
aF0.002091265209209085
aF0.012577490099931919
aF0.0020306526583722217
aF0.0044747142035164
aF0.0021762163587459755
aF0.004877244862631026
aF0.007218210660895132
aF0.0014408425569441238
aF0.001971532581950471
aF0.001919442020295316
aF0.0003897568592331186
aF0.0019888039583899676
aF0.017131782824930476
aF0.009224227572844627
aF0.022717295798957718
aF0.0028658516401632965
aF0.0066127595065340675
aF0.021038170730285195
aF0.008579542506174355
aF0.004525080248839883
aF0.007198055927007595
aF0.0
aF0.0003539438051961202
aF0.0007689802521088908
aaa(lp337
S'sub-0025919_ses-2_dwi_desikan.gpickle'
p338
a(lp339
F0.03337408026971903
aF0.0016385148783746731
aF0.0018636996091769135
aF0.01246514707261312
aF0.023605505496762356
aF0.0012026668825475305
aF0.0019446864990097675
aF0.006483425954843183
aF0.0012705275061770764
aF0.004228563443946414
aF0.008927353434105641
aF0.0052326920703995505
aF0.005730109423807672
aF0.009678445723697906
aF0.002704157154774935
aF0.0046646224978738665
aF0.0023026168446551925
aF0.0019338195310415398
aF0.0007729587420267031
aF0.0
aF9.412688064711533e-05
aF0.0052326920703995505
aF0.004706927557071683
aF0.008854374831422469
aF0.011134270606601788
aF0.011110747761338247
aF0.0021723722877051484
aF0.001137479530927703
aF0.013836937047344273
aF0.00273291353686855
aF0.007870693973346518
aF0.00027733134714490583
aF0.002610877142635916
aF0.0003709746337999685
aF0.002649814504357064
aF0.0573453053968613
aF0.005718119661646802
aF0.0027049498289980164
aF0.012328876937923235
aF0.035923086044952215
aF0.00032623109311279706
aF0.005481311140642707
aF0.0030374816245696897
aF0.008601503013320695
aF0.002115543486023442
aF0.032060216528502064
aF0.0042214312136839025
aF0.007737454753350627
aF0.0036934325887843693
aF0.0065786020539660844
aF0.0010988166726905216
aF0.0046657323855995615
aF0.007189401469768514
aF0.005690996555226199
aF0.00026677364235099855
aF0.004291155513302409
aF0.0010039476489197192
aF0.004062314414129906
aF0.013272901173688782
aF0.01580446743772041
aF0.03635796047251673
aF0.0006863222737032549
aF0.008240588117886737
aF0.02912701661879793
aF0.009992418927708049
aF0.0023205564785697508
aF0.0160454278514783
aF6.539176935596373e-05
aF0.0005250876574405986
aF0.002016520541364085
aaa(lp340
S'sub-0025920_ses-1_dwi_desikan.gpickle'
p341
a(lp342
F0.06225079734511863
aF0.0012711630324778493
aF0.001398857640182783
aF0.015838759712538703
aF0.05281568944916245
aF0.0016136699516472817
aF0.0073618656079599805
aF0.005061862202435343
aF0.0012711630324778493
aF0.0032204825156480787
aF0.04150660301508834
aF0.003838319913758373
aF0.012275995473609538
aF0.005044353234565635
aF0.01210267591953796
aF0.001690084349356807
aF0.0025435562472638346
aF0.014918578418797495
aF0.012401861665300471
aF0.0
aF0.0027019580819911586
aF0.0007771312301820158
aF0.004810829355931113
aF0.023014010780464788
aF0.02151482286821201
aF0.01388909630347024
aF0.00345862740061746
aF0.008363179347411015
aF0.04814825193384299
aF0.007911088563303295
aF0.0029498848351676987
aF0.0011978134294625049
aF0.00012044711916245384
aF0.0025490407237875436
aF0.0008892346416656203
aF0.02824348366806208
aF0.0018699405615666435
aF0.0017264601821183855
aF0.011563503939109149
aF0.015124405975707866
aF0.0009714884172548808
aF0.013372743791146249
aF0.004179482933327208
aF0.004256093266486943
aF0.0029248879821396536
aF0.013142517690053746
aF0.010090792944660934
aF0.007099543498998591
aF0.003794065812717375
aF0.010351618925866406
aF0.00255669763403846
aF0.008039479089348888
aF0.00395227722668236
aF0.005892494108289866
aF0.0
aF0.0015939272017968511
aF0.0017152420056633533
aF0.00106679969151858
aF0.00815506681036282
aF0.007739475238679134
aF0.02579968582023269
aF0.005085782344672068
aF0.003577737744326133
aF0.017930969394854196
aF0.00593492266992128
aF0.0018774995855848121
aF0.001682924282319512
aF0.0006549095450697281
aF0.0016866977864420322
aF0.0003219840931328935
aaa(lp343
S'sub-0025920_ses-2_dwi_desikan.gpickle'
p344
a(lp345
F0.05191779331488262
aF0.0006857194414396026
aF0.001957632209591665
aF0.020355022669704997
aF0.03462604109044405
aF0.0012542892389004424
aF0.003296214469882063
aF0.014049318288941744
aF0.0012828312554392831
aF0.012025717585051793
aF0.03212982312740592
aF0.004067666049257469
aF0.014982874769443747
aF0.006883457002295182
aF0.014206838162897405
aF0.0010536086415242425
aF0.0029656898356895333
aF0.01645649805666217
aF0.009114842643511733
aF0.0
aF0.004284938792679257
aF0.0019332372568052853
aF0.010649966800819555
aF0.011939934878208278
aF0.02708356926875485
aF0.007892242764960753
aF0.00451536102619716
aF0.012885241178131413
aF0.03209751989139333
aF0.003231030471113443
aF0.009751538125347027
aF0.000984798867590953
aF0.00017109789213722422
aF0.0006220706854451402
aF0.0010331494828119804
aF0.02509838855684625
aF0.0018377640097521244
aF0.0010312373133499447
aF0.015116877158435512
aF0.013812173990847616
aF0.0006527087348446211
aF0.014669623656693508
aF0.004058171672465116
aF0.0018377640097521244
aF0.0031234403002658763
aF0.016096345028810088
aF0.01269886580518824
aF0.00919500878252614
aF0.005035037583148152
aF0.007171550851279385
aF0.0031234403002658763
aF0.007158866244884182
aF0.0013252327339810435
aF0.003585105891701713
aF6.539176935596373e-05
aF0.0015951494259688471
aF0.0010365615048847955
aF0.0012435750177171218
aF0.007467139380245447
aF0.010039409245657637
aF0.030462540219074585
aF0.003527921499725787
aF0.0038053678905841802
aF0.027803193795759285
aF0.006952348343176687
aF0.0019903597269313117
aF0.0026872438900502568
aF0.000580264572726546
aF0.0005980276076838558
aF5.615945210486176e-05
aaatp346
Rp347
s.